; ModuleID = '/home/sec322/ece5775/ece5775_project/project/COO_SpMV.prj/solution1/.autopilot/db/a.o.3.bc'
target datalayout = "e-p:64:64:64-i1:8:8-i8:8:8-i16:16:16-i32:32:32-i64:64:64-f32:32:32-f64:64:64-v64:64:64-v128:128:128-a0:0:64-s0:64:64-f80:128:128-n8:16:32:64-S128"
target triple = "x86_64-unknown-linux-gnu"

@llvm_global_ctors_1 = appending global [1 x void ()*] [void ()* @_GLOBAL__I_a] ; [#uses=0 type=[1 x void ()*]*]
@llvm_global_ctors_0 = appending global [1 x i32] [i32 65535] ; [#uses=0 type=[1 x i32]*]
@hls_KD_KD_LineBuffer_MD_20_MC = internal unnamed_addr constant [56 x i8] c"hls::LineBuffer<20, 100, float, 0>::LineBuffer.1.region\00" ; [#uses=4 type=[56 x i8]*]
@COO_SpMV_str = internal unnamed_addr constant [9 x i8] c"COO_SpMV\00" ; [#uses=1 type=[9 x i8]*]

; [#uses=1]
declare i32 @llvm.part.select.i32(i32, i32, i32) nounwind readnone

; [#uses=40]
declare void @llvm.dbg.value(metadata, i64, metadata) nounwind readnone

; [#uses=40]
declare void @llvm.dbg.declare(metadata, metadata) nounwind readnone

; [#uses=1]
define weak void @_ssdm_op_SpecTopModule(...) {
entry:
  ret void
}

; [#uses=2]
define weak i32 @_ssdm_op_SpecRegionEnd(...) {
entry:
  ret i32 0
}

; [#uses=2]
define weak i32 @_ssdm_op_SpecRegionBegin(...) {
entry:
  ret i32 0
}

; [#uses=9]
define weak i32 @_ssdm_op_SpecLoopTripCount(...) {
entry:
  ret i32 0
}

; [#uses=6]
define weak void @_ssdm_op_SpecBitsMap(...) {
entry:
  ret void
}

; [#uses=1]
define weak i32 @_ssdm_op_Read.ap_auto.i32(i32) {
entry:
  ret i32 %0
}

; [#uses=2]
define weak i8 @_ssdm_op_PartSelect.i8.i32.i32.i32(i32, i32, i32) nounwind readnone {
entry:
  %empty = call i32 @llvm.part.select.i32(i32 %0, i32 %1, i32 %2) ; [#uses=1 type=i32]
  %empty_5 = trunc i32 %empty to i8               ; [#uses=1 type=i8]
  ret i8 %empty_5
}

; [#uses=0]
declare i23 @_ssdm_op_PartSelect.i23.i32.i32.i32(i32, i32, i32) nounwind readnone

; [#uses=0]
declare void @_ssdm_SpecDependence(...) nounwind

; [#uses=1]
declare void @_GLOBAL__I_a() nounwind section ".text.startup"

; [#uses=0]
define void @COO_SpMV([10000 x i32]* %row, [10000 x i32]* %col, [10000 x float]* %val, [100 x float]* %vector, [100 x float]* %output, i32 %nnz) nounwind uwtable {
  call void (...)* @_ssdm_op_SpecBitsMap([10000 x i32]* %row) nounwind, !map !99
  call void (...)* @_ssdm_op_SpecBitsMap([10000 x i32]* %col) nounwind, !map !105
  call void (...)* @_ssdm_op_SpecBitsMap([10000 x float]* %val) nounwind, !map !109
  call void (...)* @_ssdm_op_SpecBitsMap([100 x float]* %vector) nounwind, !map !113
  call void (...)* @_ssdm_op_SpecBitsMap([100 x float]* %output) nounwind, !map !119
  call void (...)* @_ssdm_op_SpecBitsMap(i32 %nnz) nounwind, !map !123
  call void (...)* @_ssdm_op_SpecTopModule([9 x i8]* @COO_SpMV_str) nounwind
  %nnz_read = call i32 @_ssdm_op_Read.ap_auto.i32(i32 %nnz) nounwind ; [#uses=1 type=i32]
  call void @llvm.dbg.value(metadata !{i32 %nnz_read}, i64 0, metadata !129), !dbg !142 ; [debug line = 20:133] [debug variable = nnz]
  %temp1_val_0 = alloca [100 x float], align 4    ; [#uses=5 type=[100 x float]*]
  %temp1_val_1 = alloca [100 x float], align 4    ; [#uses=4 type=[100 x float]*]
  %temp1_val_2 = alloca [100 x float], align 4    ; [#uses=4 type=[100 x float]*]
  %temp1_val_3 = alloca [100 x float], align 4    ; [#uses=4 type=[100 x float]*]
  %temp1_val_4 = alloca [100 x float], align 4    ; [#uses=4 type=[100 x float]*]
  %temp1_val_5 = alloca [100 x float], align 4    ; [#uses=4 type=[100 x float]*]
  %temp1_val_6 = alloca [100 x float], align 4    ; [#uses=4 type=[100 x float]*]
  %temp1_val_7 = alloca [100 x float], align 4    ; [#uses=4 type=[100 x float]*]
  %temp1_val_8 = alloca [100 x float], align 4    ; [#uses=4 type=[100 x float]*]
  %temp1_val_9 = alloca [100 x float], align 4    ; [#uses=4 type=[100 x float]*]
  %temp1_val_10 = alloca [100 x float], align 4   ; [#uses=4 type=[100 x float]*]
  %temp1_val_11 = alloca [100 x float], align 4   ; [#uses=4 type=[100 x float]*]
  %temp1_val_12 = alloca [100 x float], align 4   ; [#uses=4 type=[100 x float]*]
  %temp1_val_13 = alloca [100 x float], align 4   ; [#uses=4 type=[100 x float]*]
  %temp1_val_14 = alloca [100 x float], align 4   ; [#uses=4 type=[100 x float]*]
  %temp1_val_15 = alloca [100 x float], align 4   ; [#uses=4 type=[100 x float]*]
  %temp1_val_16 = alloca [100 x float], align 4   ; [#uses=4 type=[100 x float]*]
  %temp1_val_17 = alloca [100 x float], align 4   ; [#uses=4 type=[100 x float]*]
  %temp1_val_18 = alloca [100 x float], align 4   ; [#uses=4 type=[100 x float]*]
  %temp1_val_19 = alloca [100 x float], align 4   ; [#uses=4 type=[100 x float]*]
  %temp2_val_0 = alloca [100 x float], align 4    ; [#uses=3 type=[100 x float]*]
  %temp2_val_1 = alloca [100 x float], align 4    ; [#uses=3 type=[100 x float]*]
  %temp2_val_2 = alloca [100 x float], align 4    ; [#uses=3 type=[100 x float]*]
  %temp2_val_3 = alloca [100 x float], align 4    ; [#uses=3 type=[100 x float]*]
  %temp2_val_4 = alloca [100 x float], align 4    ; [#uses=3 type=[100 x float]*]
  %temp2_val_5 = alloca [100 x float], align 4    ; [#uses=3 type=[100 x float]*]
  %temp2_val_6 = alloca [100 x float], align 4    ; [#uses=3 type=[100 x float]*]
  %temp2_val_7 = alloca [100 x float], align 4    ; [#uses=3 type=[100 x float]*]
  %temp2_val_8 = alloca [100 x float], align 4    ; [#uses=3 type=[100 x float]*]
  %temp2_val_9 = alloca [100 x float], align 4    ; [#uses=3 type=[100 x float]*]
  %temp2_val_10 = alloca [100 x float], align 4   ; [#uses=3 type=[100 x float]*]
  %temp2_val_11 = alloca [100 x float], align 4   ; [#uses=3 type=[100 x float]*]
  %temp2_val_12 = alloca [100 x float], align 4   ; [#uses=3 type=[100 x float]*]
  %temp2_val_13 = alloca [100 x float], align 4   ; [#uses=3 type=[100 x float]*]
  %temp2_val_14 = alloca [100 x float], align 4   ; [#uses=3 type=[100 x float]*]
  %temp2_val_15 = alloca [100 x float], align 4   ; [#uses=3 type=[100 x float]*]
  %temp2_val_16 = alloca [100 x float], align 4   ; [#uses=3 type=[100 x float]*]
  %temp2_val_17 = alloca [100 x float], align 4   ; [#uses=3 type=[100 x float]*]
  %temp2_val_18 = alloca [100 x float], align 4   ; [#uses=3 type=[100 x float]*]
  %temp2_val_19 = alloca [100 x float], align 4   ; [#uses=3 type=[100 x float]*]
  call void @llvm.dbg.value(metadata !{[10000 x i32]* %row}, i64 0, metadata !143), !dbg !147 ; [debug line = 20:19] [debug variable = row]
  call void @llvm.dbg.value(metadata !{[10000 x i32]* %col}, i64 0, metadata !148), !dbg !149 ; [debug line = 20:41] [debug variable = col]
  call void @llvm.dbg.value(metadata !{[10000 x float]* %val}, i64 0, metadata !150), !dbg !152 ; [debug line = 20:65] [debug variable = val]
  call void @llvm.dbg.value(metadata !{[100 x float]* %vector}, i64 0, metadata !153), !dbg !157 ; [debug line = 20:95] [debug variable = vector]
  call void @llvm.dbg.value(metadata !{[100 x float]* %output}, i64 0, metadata !158), !dbg !160 ; [debug line = 20:115] [debug variable = output]
  call void @llvm.dbg.value(metadata !{i32 %nnz}, i64 0, metadata !129), !dbg !142 ; [debug line = 20:133] [debug variable = nnz]
  call void @llvm.dbg.declare(metadata !{[100 x float]* %temp1_val_0}, metadata !161), !dbg !204 ; [debug line = 22:38] [debug variable = temp1.val[0]]
  call void @llvm.dbg.declare(metadata !{[100 x float]* %temp1_val_1}, metadata !205), !dbg !204 ; [debug line = 22:38] [debug variable = temp1.val[1]]
  call void @llvm.dbg.declare(metadata !{[100 x float]* %temp1_val_2}, metadata !206), !dbg !204 ; [debug line = 22:38] [debug variable = temp1.val[2]]
  call void @llvm.dbg.declare(metadata !{[100 x float]* %temp1_val_3}, metadata !207), !dbg !204 ; [debug line = 22:38] [debug variable = temp1.val[3]]
  call void @llvm.dbg.declare(metadata !{[100 x float]* %temp1_val_4}, metadata !208), !dbg !204 ; [debug line = 22:38] [debug variable = temp1.val[4]]
  call void @llvm.dbg.declare(metadata !{[100 x float]* %temp1_val_5}, metadata !209), !dbg !204 ; [debug line = 22:38] [debug variable = temp1.val[5]]
  call void @llvm.dbg.declare(metadata !{[100 x float]* %temp1_val_6}, metadata !210), !dbg !204 ; [debug line = 22:38] [debug variable = temp1.val[6]]
  call void @llvm.dbg.declare(metadata !{[100 x float]* %temp1_val_7}, metadata !211), !dbg !204 ; [debug line = 22:38] [debug variable = temp1.val[7]]
  call void @llvm.dbg.declare(metadata !{[100 x float]* %temp1_val_8}, metadata !212), !dbg !204 ; [debug line = 22:38] [debug variable = temp1.val[8]]
  call void @llvm.dbg.declare(metadata !{[100 x float]* %temp1_val_9}, metadata !213), !dbg !204 ; [debug line = 22:38] [debug variable = temp1.val[9]]
  call void @llvm.dbg.declare(metadata !{[100 x float]* %temp1_val_10}, metadata !214), !dbg !204 ; [debug line = 22:38] [debug variable = temp1.val[10]]
  call void @llvm.dbg.declare(metadata !{[100 x float]* %temp1_val_11}, metadata !215), !dbg !204 ; [debug line = 22:38] [debug variable = temp1.val[11]]
  call void @llvm.dbg.declare(metadata !{[100 x float]* %temp1_val_12}, metadata !216), !dbg !204 ; [debug line = 22:38] [debug variable = temp1.val[12]]
  call void @llvm.dbg.declare(metadata !{[100 x float]* %temp1_val_13}, metadata !217), !dbg !204 ; [debug line = 22:38] [debug variable = temp1.val[13]]
  call void @llvm.dbg.declare(metadata !{[100 x float]* %temp1_val_14}, metadata !218), !dbg !204 ; [debug line = 22:38] [debug variable = temp1.val[14]]
  call void @llvm.dbg.declare(metadata !{[100 x float]* %temp1_val_15}, metadata !219), !dbg !204 ; [debug line = 22:38] [debug variable = temp1.val[15]]
  call void @llvm.dbg.declare(metadata !{[100 x float]* %temp1_val_16}, metadata !220), !dbg !204 ; [debug line = 22:38] [debug variable = temp1.val[16]]
  call void @llvm.dbg.declare(metadata !{[100 x float]* %temp1_val_17}, metadata !221), !dbg !204 ; [debug line = 22:38] [debug variable = temp1.val[17]]
  call void @llvm.dbg.declare(metadata !{[100 x float]* %temp1_val_18}, metadata !222), !dbg !204 ; [debug line = 22:38] [debug variable = temp1.val[18]]
  call void @llvm.dbg.declare(metadata !{[100 x float]* %temp1_val_19}, metadata !223), !dbg !204 ; [debug line = 22:38] [debug variable = temp1.val[19]]
  %rbegin_i1 = call i32 (...)* @_ssdm_op_SpecRegionBegin([56 x i8]* @hls_KD_KD_LineBuffer_MD_20_MC) nounwind ; [#uses=1 type=i32]
  %rend_i18 = call i32 (...)* @_ssdm_op_SpecRegionEnd([56 x i8]* @hls_KD_KD_LineBuffer_MD_20_MC, i32 %rbegin_i1) nounwind ; [#uses=0 type=i32]
  call void @llvm.dbg.declare(metadata !{[100 x float]* %temp2_val_0}, metadata !224), !dbg !226 ; [debug line = 23:38] [debug variable = temp2.val[0]]
  call void @llvm.dbg.declare(metadata !{[100 x float]* %temp2_val_1}, metadata !227), !dbg !226 ; [debug line = 23:38] [debug variable = temp2.val[1]]
  call void @llvm.dbg.declare(metadata !{[100 x float]* %temp2_val_2}, metadata !228), !dbg !226 ; [debug line = 23:38] [debug variable = temp2.val[2]]
  call void @llvm.dbg.declare(metadata !{[100 x float]* %temp2_val_3}, metadata !229), !dbg !226 ; [debug line = 23:38] [debug variable = temp2.val[3]]
  call void @llvm.dbg.declare(metadata !{[100 x float]* %temp2_val_4}, metadata !230), !dbg !226 ; [debug line = 23:38] [debug variable = temp2.val[4]]
  call void @llvm.dbg.declare(metadata !{[100 x float]* %temp2_val_5}, metadata !231), !dbg !226 ; [debug line = 23:38] [debug variable = temp2.val[5]]
  call void @llvm.dbg.declare(metadata !{[100 x float]* %temp2_val_6}, metadata !232), !dbg !226 ; [debug line = 23:38] [debug variable = temp2.val[6]]
  call void @llvm.dbg.declare(metadata !{[100 x float]* %temp2_val_7}, metadata !233), !dbg !226 ; [debug line = 23:38] [debug variable = temp2.val[7]]
  call void @llvm.dbg.declare(metadata !{[100 x float]* %temp2_val_8}, metadata !234), !dbg !226 ; [debug line = 23:38] [debug variable = temp2.val[8]]
  call void @llvm.dbg.declare(metadata !{[100 x float]* %temp2_val_9}, metadata !235), !dbg !226 ; [debug line = 23:38] [debug variable = temp2.val[9]]
  call void @llvm.dbg.declare(metadata !{[100 x float]* %temp2_val_10}, metadata !236), !dbg !226 ; [debug line = 23:38] [debug variable = temp2.val[10]]
  call void @llvm.dbg.declare(metadata !{[100 x float]* %temp2_val_11}, metadata !237), !dbg !226 ; [debug line = 23:38] [debug variable = temp2.val[11]]
  call void @llvm.dbg.declare(metadata !{[100 x float]* %temp2_val_12}, metadata !238), !dbg !226 ; [debug line = 23:38] [debug variable = temp2.val[12]]
  call void @llvm.dbg.declare(metadata !{[100 x float]* %temp2_val_13}, metadata !239), !dbg !226 ; [debug line = 23:38] [debug variable = temp2.val[13]]
  call void @llvm.dbg.declare(metadata !{[100 x float]* %temp2_val_14}, metadata !240), !dbg !226 ; [debug line = 23:38] [debug variable = temp2.val[14]]
  call void @llvm.dbg.declare(metadata !{[100 x float]* %temp2_val_15}, metadata !241), !dbg !226 ; [debug line = 23:38] [debug variable = temp2.val[15]]
  call void @llvm.dbg.declare(metadata !{[100 x float]* %temp2_val_16}, metadata !242), !dbg !226 ; [debug line = 23:38] [debug variable = temp2.val[16]]
  call void @llvm.dbg.declare(metadata !{[100 x float]* %temp2_val_17}, metadata !243), !dbg !226 ; [debug line = 23:38] [debug variable = temp2.val[17]]
  call void @llvm.dbg.declare(metadata !{[100 x float]* %temp2_val_18}, metadata !244), !dbg !226 ; [debug line = 23:38] [debug variable = temp2.val[18]]
  call void @llvm.dbg.declare(metadata !{[100 x float]* %temp2_val_19}, metadata !245), !dbg !226 ; [debug line = 23:38] [debug variable = temp2.val[19]]
  %rbegin_i = call i32 (...)* @_ssdm_op_SpecRegionBegin([56 x i8]* @hls_KD_KD_LineBuffer_MD_20_MC) nounwind ; [#uses=1 type=i32]
  %rend_i = call i32 (...)* @_ssdm_op_SpecRegionEnd([56 x i8]* @hls_KD_KD_LineBuffer_MD_20_MC, i32 %rbegin_i) nounwind ; [#uses=0 type=i32]
  br label %.loopexit, !dbg !246                  ; [debug line = 25:18]

.loopexit:                                        ; preds = %2, %0
  %col_assign = phi i7 [ 0, %0 ], [ %i_1, %2 ]    ; [#uses=3 type=i7]
  %exitcond8 = icmp eq i7 %col_assign, -28, !dbg !246 ; [#uses=1 type=i1] [debug line = 25:18]
  %empty = call i32 (...)* @_ssdm_op_SpecLoopTripCount(i64 100, i64 100, i64 100) nounwind ; [#uses=0 type=i32]
  %i_1 = add i7 %col_assign, 1, !dbg !248         ; [#uses=1 type=i7] [debug line = 25:30]
  call void @llvm.dbg.value(metadata !{i7 %i_1}, i64 0, metadata !249), !dbg !248 ; [debug line = 25:30] [debug variable = i]
  br i1 %exitcond8, label %.preheader14, label %1, !dbg !246 ; [debug line = 25:18]

; <label>:1                                       ; preds = %.loopexit
  %tmp = zext i7 %col_assign to i64, !dbg !250    ; [#uses=41 type=i64] [debug line = 26:9]
  %output_addr = getelementptr [100 x float]* %output, i64 0, i64 %tmp, !dbg !250 ; [#uses=1 type=float*] [debug line = 26:9]
  store float 0.000000e+00, float* %output_addr, align 4, !dbg !250 ; [debug line = 26:9]
  %temp1_val_18_addr_1 = getelementptr [100 x float]* %temp1_val_18, i64 0, i64 %tmp ; [#uses=2 type=float*]
  %temp1_val_19_addr_1 = getelementptr [100 x float]* %temp1_val_19, i64 0, i64 %tmp ; [#uses=1 type=float*]
  %temp1_val_17_addr_1 = getelementptr [100 x float]* %temp1_val_17, i64 0, i64 %tmp ; [#uses=2 type=float*]
  %temp1_val_16_addr_1 = getelementptr [100 x float]* %temp1_val_16, i64 0, i64 %tmp ; [#uses=2 type=float*]
  %temp1_val_15_addr_1 = getelementptr [100 x float]* %temp1_val_15, i64 0, i64 %tmp ; [#uses=2 type=float*]
  %temp1_val_14_addr_1 = getelementptr [100 x float]* %temp1_val_14, i64 0, i64 %tmp ; [#uses=2 type=float*]
  %temp1_val_13_addr_1 = getelementptr [100 x float]* %temp1_val_13, i64 0, i64 %tmp ; [#uses=2 type=float*]
  %temp1_val_12_addr_1 = getelementptr [100 x float]* %temp1_val_12, i64 0, i64 %tmp ; [#uses=2 type=float*]
  %temp1_val_11_addr_1 = getelementptr [100 x float]* %temp1_val_11, i64 0, i64 %tmp ; [#uses=2 type=float*]
  %temp1_val_10_addr_1 = getelementptr [100 x float]* %temp1_val_10, i64 0, i64 %tmp ; [#uses=2 type=float*]
  %temp1_val_9_addr_1 = getelementptr [100 x float]* %temp1_val_9, i64 0, i64 %tmp ; [#uses=2 type=float*]
  %temp1_val_8_addr_1 = getelementptr [100 x float]* %temp1_val_8, i64 0, i64 %tmp ; [#uses=2 type=float*]
  %temp1_val_7_addr_1 = getelementptr [100 x float]* %temp1_val_7, i64 0, i64 %tmp ; [#uses=2 type=float*]
  %temp1_val_6_addr_1 = getelementptr [100 x float]* %temp1_val_6, i64 0, i64 %tmp ; [#uses=2 type=float*]
  %temp1_val_5_addr_1 = getelementptr [100 x float]* %temp1_val_5, i64 0, i64 %tmp ; [#uses=2 type=float*]
  %temp1_val_4_addr_1 = getelementptr [100 x float]* %temp1_val_4, i64 0, i64 %tmp ; [#uses=2 type=float*]
  %temp1_val_3_addr_1 = getelementptr [100 x float]* %temp1_val_3, i64 0, i64 %tmp ; [#uses=2 type=float*]
  %temp1_val_2_addr_1 = getelementptr [100 x float]* %temp1_val_2, i64 0, i64 %tmp ; [#uses=2 type=float*]
  %temp1_val_1_addr_1 = getelementptr [100 x float]* %temp1_val_1, i64 0, i64 %tmp ; [#uses=2 type=float*]
  %temp1_val_0_addr_1 = getelementptr [100 x float]* %temp1_val_0, i64 0, i64 %tmp ; [#uses=2 type=float*]
  %temp2_val_18_addr = getelementptr [100 x float]* %temp2_val_18, i64 0, i64 %tmp ; [#uses=2 type=float*]
  %temp2_val_19_addr = getelementptr [100 x float]* %temp2_val_19, i64 0, i64 %tmp ; [#uses=1 type=float*]
  %temp2_val_17_addr = getelementptr [100 x float]* %temp2_val_17, i64 0, i64 %tmp ; [#uses=2 type=float*]
  %temp2_val_16_addr = getelementptr [100 x float]* %temp2_val_16, i64 0, i64 %tmp ; [#uses=2 type=float*]
  %temp2_val_15_addr = getelementptr [100 x float]* %temp2_val_15, i64 0, i64 %tmp ; [#uses=2 type=float*]
  %temp2_val_14_addr = getelementptr [100 x float]* %temp2_val_14, i64 0, i64 %tmp ; [#uses=2 type=float*]
  %temp2_val_13_addr = getelementptr [100 x float]* %temp2_val_13, i64 0, i64 %tmp ; [#uses=2 type=float*]
  %temp2_val_12_addr = getelementptr [100 x float]* %temp2_val_12, i64 0, i64 %tmp ; [#uses=2 type=float*]
  %temp2_val_11_addr = getelementptr [100 x float]* %temp2_val_11, i64 0, i64 %tmp ; [#uses=2 type=float*]
  %temp2_val_10_addr = getelementptr [100 x float]* %temp2_val_10, i64 0, i64 %tmp ; [#uses=2 type=float*]
  %temp2_val_9_addr = getelementptr [100 x float]* %temp2_val_9, i64 0, i64 %tmp ; [#uses=2 type=float*]
  %temp2_val_8_addr = getelementptr [100 x float]* %temp2_val_8, i64 0, i64 %tmp ; [#uses=2 type=float*]
  %temp2_val_7_addr = getelementptr [100 x float]* %temp2_val_7, i64 0, i64 %tmp ; [#uses=2 type=float*]
  %temp2_val_6_addr = getelementptr [100 x float]* %temp2_val_6, i64 0, i64 %tmp ; [#uses=2 type=float*]
  %temp2_val_5_addr = getelementptr [100 x float]* %temp2_val_5, i64 0, i64 %tmp ; [#uses=2 type=float*]
  %temp2_val_4_addr = getelementptr [100 x float]* %temp2_val_4, i64 0, i64 %tmp ; [#uses=2 type=float*]
  %temp2_val_3_addr = getelementptr [100 x float]* %temp2_val_3, i64 0, i64 %tmp ; [#uses=2 type=float*]
  %temp2_val_2_addr = getelementptr [100 x float]* %temp2_val_2, i64 0, i64 %tmp ; [#uses=2 type=float*]
  %temp2_val_1_addr = getelementptr [100 x float]* %temp2_val_1, i64 0, i64 %tmp ; [#uses=2 type=float*]
  %temp2_val_0_addr = getelementptr [100 x float]* %temp2_val_0, i64 0, i64 %tmp ; [#uses=2 type=float*]
  br label %2, !dbg !252                          ; [debug line = 27:23]

; <label>:2                                       ; preds = %.preheader.i45.0, %1
  %j = phi i5 [ 0, %1 ], [ %j_1, %.preheader.i45.0 ] ; [#uses=2 type=i5]
  %exitcond7 = icmp eq i5 %j, -12, !dbg !252      ; [#uses=1 type=i1] [debug line = 27:23]
  %empty_6 = call i32 (...)* @_ssdm_op_SpecLoopTripCount(i64 20, i64 20, i64 20) nounwind ; [#uses=0 type=i32]
  %j_1 = add i5 %j, 1, !dbg !254                  ; [#uses=1 type=i5] [debug line = 27:33]
  br i1 %exitcond7, label %.loopexit, label %.preheader.i45.0, !dbg !252 ; [debug line = 27:23]

.preheader.i45.0:                                 ; preds = %2
  call void @llvm.dbg.value(metadata !{i7 %col_assign}, i64 0, metadata !255) nounwind, !dbg !259 ; [debug line = 630:32@28:13] [debug variable = col]
  %temp1_val_18_load_1 = load float* %temp1_val_18_addr_1, align 4, !dbg !260 ; [#uses=1 type=float] [debug line = 689:27@28:13]
  store float %temp1_val_18_load_1, float* %temp1_val_19_addr_1, align 4, !dbg !264 ; [debug line = 689:13@28:13]
  %temp1_val_17_load_1 = load float* %temp1_val_17_addr_1, align 4, !dbg !260 ; [#uses=1 type=float] [debug line = 689:27@28:13]
  store float %temp1_val_17_load_1, float* %temp1_val_18_addr_1, align 4, !dbg !264 ; [debug line = 689:13@28:13]
  %temp1_val_16_load_1 = load float* %temp1_val_16_addr_1, align 4, !dbg !260 ; [#uses=1 type=float] [debug line = 689:27@28:13]
  store float %temp1_val_16_load_1, float* %temp1_val_17_addr_1, align 4, !dbg !264 ; [debug line = 689:13@28:13]
  %temp1_val_15_load_1 = load float* %temp1_val_15_addr_1, align 4, !dbg !260 ; [#uses=1 type=float] [debug line = 689:27@28:13]
  store float %temp1_val_15_load_1, float* %temp1_val_16_addr_1, align 4, !dbg !264 ; [debug line = 689:13@28:13]
  %temp1_val_14_load_1 = load float* %temp1_val_14_addr_1, align 4, !dbg !260 ; [#uses=1 type=float] [debug line = 689:27@28:13]
  store float %temp1_val_14_load_1, float* %temp1_val_15_addr_1, align 4, !dbg !264 ; [debug line = 689:13@28:13]
  %temp1_val_13_load_1 = load float* %temp1_val_13_addr_1, align 4, !dbg !260 ; [#uses=1 type=float] [debug line = 689:27@28:13]
  store float %temp1_val_13_load_1, float* %temp1_val_14_addr_1, align 4, !dbg !264 ; [debug line = 689:13@28:13]
  %temp1_val_12_load_1 = load float* %temp1_val_12_addr_1, align 4, !dbg !260 ; [#uses=1 type=float] [debug line = 689:27@28:13]
  store float %temp1_val_12_load_1, float* %temp1_val_13_addr_1, align 4, !dbg !264 ; [debug line = 689:13@28:13]
  %temp1_val_11_load_1 = load float* %temp1_val_11_addr_1, align 4, !dbg !260 ; [#uses=1 type=float] [debug line = 689:27@28:13]
  store float %temp1_val_11_load_1, float* %temp1_val_12_addr_1, align 4, !dbg !264 ; [debug line = 689:13@28:13]
  %temp1_val_10_load_1 = load float* %temp1_val_10_addr_1, align 4, !dbg !260 ; [#uses=1 type=float] [debug line = 689:27@28:13]
  store float %temp1_val_10_load_1, float* %temp1_val_11_addr_1, align 4, !dbg !264 ; [debug line = 689:13@28:13]
  %temp1_val_9_load_1 = load float* %temp1_val_9_addr_1, align 4, !dbg !260 ; [#uses=1 type=float] [debug line = 689:27@28:13]
  store float %temp1_val_9_load_1, float* %temp1_val_10_addr_1, align 4, !dbg !264 ; [debug line = 689:13@28:13]
  %temp1_val_8_load_1 = load float* %temp1_val_8_addr_1, align 4, !dbg !260 ; [#uses=1 type=float] [debug line = 689:27@28:13]
  store float %temp1_val_8_load_1, float* %temp1_val_9_addr_1, align 4, !dbg !264 ; [debug line = 689:13@28:13]
  %temp1_val_7_load_1 = load float* %temp1_val_7_addr_1, align 4, !dbg !260 ; [#uses=1 type=float] [debug line = 689:27@28:13]
  store float %temp1_val_7_load_1, float* %temp1_val_8_addr_1, align 4, !dbg !264 ; [debug line = 689:13@28:13]
  %temp1_val_6_load_1 = load float* %temp1_val_6_addr_1, align 4, !dbg !260 ; [#uses=1 type=float] [debug line = 689:27@28:13]
  store float %temp1_val_6_load_1, float* %temp1_val_7_addr_1, align 4, !dbg !264 ; [debug line = 689:13@28:13]
  %temp1_val_5_load_1 = load float* %temp1_val_5_addr_1, align 4, !dbg !260 ; [#uses=1 type=float] [debug line = 689:27@28:13]
  store float %temp1_val_5_load_1, float* %temp1_val_6_addr_1, align 4, !dbg !264 ; [debug line = 689:13@28:13]
  %temp1_val_4_load_1 = load float* %temp1_val_4_addr_1, align 4, !dbg !260 ; [#uses=1 type=float] [debug line = 689:27@28:13]
  store float %temp1_val_4_load_1, float* %temp1_val_5_addr_1, align 4, !dbg !264 ; [debug line = 689:13@28:13]
  %temp1_val_3_load_1 = load float* %temp1_val_3_addr_1, align 4, !dbg !260 ; [#uses=1 type=float] [debug line = 689:27@28:13]
  store float %temp1_val_3_load_1, float* %temp1_val_4_addr_1, align 4, !dbg !264 ; [debug line = 689:13@28:13]
  %temp1_val_2_load_1 = load float* %temp1_val_2_addr_1, align 4, !dbg !260 ; [#uses=1 type=float] [debug line = 689:27@28:13]
  store float %temp1_val_2_load_1, float* %temp1_val_3_addr_1, align 4, !dbg !264 ; [debug line = 689:13@28:13]
  %temp1_val_1_load_1 = load float* %temp1_val_1_addr_1, align 4, !dbg !260 ; [#uses=1 type=float] [debug line = 689:27@28:13]
  store float %temp1_val_1_load_1, float* %temp1_val_2_addr_1, align 4, !dbg !264 ; [debug line = 689:13@28:13]
  %temp1_val_0_load_1 = load float* %temp1_val_0_addr_1, align 4, !dbg !260 ; [#uses=1 type=float] [debug line = 689:27@28:13]
  store float %temp1_val_0_load_1, float* %temp1_val_1_addr_1, align 4, !dbg !264 ; [debug line = 689:13@28:13]
  call void @llvm.dbg.value(metadata !{i7 %col_assign}, i64 0, metadata !265) nounwind, !dbg !268 ; [debug line = 632:38@29:13] [debug variable = col]
  store float 0.000000e+00, float* %temp1_val_0_addr_1, align 4, !dbg !269 ; [debug line = 797:5@29:13]
  call void @llvm.dbg.value(metadata !{i7 %col_assign}, i64 0, metadata !271) nounwind, !dbg !273 ; [debug line = 630:32@30:13] [debug variable = col]
  %temp2_val_18_load = load float* %temp2_val_18_addr, align 4, !dbg !274 ; [#uses=1 type=float] [debug line = 689:27@30:13]
  store float %temp2_val_18_load, float* %temp2_val_19_addr, align 4, !dbg !275 ; [debug line = 689:13@30:13]
  %temp2_val_17_load = load float* %temp2_val_17_addr, align 4, !dbg !274 ; [#uses=1 type=float] [debug line = 689:27@30:13]
  store float %temp2_val_17_load, float* %temp2_val_18_addr, align 4, !dbg !275 ; [debug line = 689:13@30:13]
  %temp2_val_16_load = load float* %temp2_val_16_addr, align 4, !dbg !274 ; [#uses=1 type=float] [debug line = 689:27@30:13]
  store float %temp2_val_16_load, float* %temp2_val_17_addr, align 4, !dbg !275 ; [debug line = 689:13@30:13]
  %temp2_val_15_load = load float* %temp2_val_15_addr, align 4, !dbg !274 ; [#uses=1 type=float] [debug line = 689:27@30:13]
  store float %temp2_val_15_load, float* %temp2_val_16_addr, align 4, !dbg !275 ; [debug line = 689:13@30:13]
  %temp2_val_14_load = load float* %temp2_val_14_addr, align 4, !dbg !274 ; [#uses=1 type=float] [debug line = 689:27@30:13]
  store float %temp2_val_14_load, float* %temp2_val_15_addr, align 4, !dbg !275 ; [debug line = 689:13@30:13]
  %temp2_val_13_load = load float* %temp2_val_13_addr, align 4, !dbg !274 ; [#uses=1 type=float] [debug line = 689:27@30:13]
  store float %temp2_val_13_load, float* %temp2_val_14_addr, align 4, !dbg !275 ; [debug line = 689:13@30:13]
  %temp2_val_12_load = load float* %temp2_val_12_addr, align 4, !dbg !274 ; [#uses=1 type=float] [debug line = 689:27@30:13]
  store float %temp2_val_12_load, float* %temp2_val_13_addr, align 4, !dbg !275 ; [debug line = 689:13@30:13]
  %temp2_val_11_load = load float* %temp2_val_11_addr, align 4, !dbg !274 ; [#uses=1 type=float] [debug line = 689:27@30:13]
  store float %temp2_val_11_load, float* %temp2_val_12_addr, align 4, !dbg !275 ; [debug line = 689:13@30:13]
  %temp2_val_10_load = load float* %temp2_val_10_addr, align 4, !dbg !274 ; [#uses=1 type=float] [debug line = 689:27@30:13]
  store float %temp2_val_10_load, float* %temp2_val_11_addr, align 4, !dbg !275 ; [debug line = 689:13@30:13]
  %temp2_val_9_load = load float* %temp2_val_9_addr, align 4, !dbg !274 ; [#uses=1 type=float] [debug line = 689:27@30:13]
  store float %temp2_val_9_load, float* %temp2_val_10_addr, align 4, !dbg !275 ; [debug line = 689:13@30:13]
  %temp2_val_8_load = load float* %temp2_val_8_addr, align 4, !dbg !274 ; [#uses=1 type=float] [debug line = 689:27@30:13]
  store float %temp2_val_8_load, float* %temp2_val_9_addr, align 4, !dbg !275 ; [debug line = 689:13@30:13]
  %temp2_val_7_load = load float* %temp2_val_7_addr, align 4, !dbg !274 ; [#uses=1 type=float] [debug line = 689:27@30:13]
  store float %temp2_val_7_load, float* %temp2_val_8_addr, align 4, !dbg !275 ; [debug line = 689:13@30:13]
  %temp2_val_6_load = load float* %temp2_val_6_addr, align 4, !dbg !274 ; [#uses=1 type=float] [debug line = 689:27@30:13]
  store float %temp2_val_6_load, float* %temp2_val_7_addr, align 4, !dbg !275 ; [debug line = 689:13@30:13]
  %temp2_val_5_load = load float* %temp2_val_5_addr, align 4, !dbg !274 ; [#uses=1 type=float] [debug line = 689:27@30:13]
  store float %temp2_val_5_load, float* %temp2_val_6_addr, align 4, !dbg !275 ; [debug line = 689:13@30:13]
  %temp2_val_4_load = load float* %temp2_val_4_addr, align 4, !dbg !274 ; [#uses=1 type=float] [debug line = 689:27@30:13]
  store float %temp2_val_4_load, float* %temp2_val_5_addr, align 4, !dbg !275 ; [debug line = 689:13@30:13]
  %temp2_val_3_load = load float* %temp2_val_3_addr, align 4, !dbg !274 ; [#uses=1 type=float] [debug line = 689:27@30:13]
  store float %temp2_val_3_load, float* %temp2_val_4_addr, align 4, !dbg !275 ; [debug line = 689:13@30:13]
  %temp2_val_2_load = load float* %temp2_val_2_addr, align 4, !dbg !274 ; [#uses=1 type=float] [debug line = 689:27@30:13]
  store float %temp2_val_2_load, float* %temp2_val_3_addr, align 4, !dbg !275 ; [debug line = 689:13@30:13]
  %temp2_val_1_load = load float* %temp2_val_1_addr, align 4, !dbg !274 ; [#uses=1 type=float] [debug line = 689:27@30:13]
  store float %temp2_val_1_load, float* %temp2_val_2_addr, align 4, !dbg !275 ; [debug line = 689:13@30:13]
  %temp2_val_0_load = load float* %temp2_val_0_addr, align 4, !dbg !274 ; [#uses=1 type=float] [debug line = 689:27@30:13]
  store float %temp2_val_0_load, float* %temp2_val_1_addr, align 4, !dbg !275 ; [debug line = 689:13@30:13]
  call void @llvm.dbg.value(metadata !{i7 %col_assign}, i64 0, metadata !276) nounwind, !dbg !278 ; [debug line = 632:38@31:13] [debug variable = col]
  store float 0.000000e+00, float* %temp2_val_0_addr, align 4, !dbg !279 ; [debug line = 797:5@31:13]
  call void @llvm.dbg.value(metadata !{i5 %j_1}, i64 0, metadata !280), !dbg !254 ; [debug line = 27:33] [debug variable = j]
  br label %2, !dbg !254                          ; [debug line = 27:33]

.preheader14:                                     ; preds = %._crit_edge, %.loopexit
  %i1 = phi i14 [ %i_2, %._crit_edge ], [ 0, %.loopexit ] ; [#uses=4 type=i14]
  %i1_cast4 = zext i14 %i1 to i32, !dbg !281      ; [#uses=1 type=i32] [debug line = 36:19]
  %exitcond6 = icmp eq i14 %i1, -6384, !dbg !281  ; [#uses=1 type=i1] [debug line = 36:19]
  %empty_7 = call i32 (...)* @_ssdm_op_SpecLoopTripCount(i64 10000, i64 10000, i64 10000) nounwind ; [#uses=0 type=i32]
  %i_2 = add i14 %i1, 1, !dbg !283                ; [#uses=1 type=i14] [debug line = 36:38]
  br i1 %exitcond6, label %.preheader13, label %3, !dbg !281 ; [debug line = 36:19]

; <label>:3                                       ; preds = %.preheader14
  %tmp_1 = icmp slt i32 %i1_cast4, %nnz_read, !dbg !284 ; [#uses=1 type=i1] [debug line = 37:9]
  br i1 %tmp_1, label %.preheader.preheader.i29, label %._crit_edge, !dbg !284 ; [debug line = 37:9]

.preheader.preheader.i29:                         ; preds = %3
  %tmp_5 = zext i14 %i1 to i64, !dbg !286         ; [#uses=3 type=i64] [debug line = 38:13]
  %row_addr = getelementptr [10000 x i32]* %row, i64 0, i64 %tmp_5, !dbg !286 ; [#uses=1 type=i32*] [debug line = 38:13]
  %row_load = load i32* %row_addr, align 4, !dbg !286 ; [#uses=1 type=i32] [debug line = 38:13]
  call void @llvm.dbg.value(metadata !{i32 %row_load}, i64 0, metadata !288) nounwind, !dbg !289 ; [debug line = 630:32@38:13] [debug variable = col]
  %tmp_8 = zext i32 %row_load to i64, !dbg !290   ; [#uses=20 type=i64] [debug line = 689:9@38:13]
  %temp1_val_18_addr = getelementptr [100 x float]* %temp1_val_18, i64 0, i64 %tmp_8 ; [#uses=2 type=float*]
  %temp1_val_18_load = load float* %temp1_val_18_addr, align 4, !dbg !291 ; [#uses=1 type=float] [debug line = 689:27@38:13]
  %temp1_val_19_addr = getelementptr [100 x float]* %temp1_val_19, i64 0, i64 %tmp_8 ; [#uses=1 type=float*]
  store float %temp1_val_18_load, float* %temp1_val_19_addr, align 4, !dbg !292 ; [debug line = 689:13@38:13]
  %temp1_val_17_addr = getelementptr [100 x float]* %temp1_val_17, i64 0, i64 %tmp_8 ; [#uses=2 type=float*]
  %temp1_val_17_load = load float* %temp1_val_17_addr, align 4, !dbg !291 ; [#uses=1 type=float] [debug line = 689:27@38:13]
  store float %temp1_val_17_load, float* %temp1_val_18_addr, align 4, !dbg !292 ; [debug line = 689:13@38:13]
  %temp1_val_16_addr = getelementptr [100 x float]* %temp1_val_16, i64 0, i64 %tmp_8 ; [#uses=2 type=float*]
  %temp1_val_16_load = load float* %temp1_val_16_addr, align 4, !dbg !291 ; [#uses=1 type=float] [debug line = 689:27@38:13]
  store float %temp1_val_16_load, float* %temp1_val_17_addr, align 4, !dbg !292 ; [debug line = 689:13@38:13]
  %temp1_val_15_addr = getelementptr [100 x float]* %temp1_val_15, i64 0, i64 %tmp_8 ; [#uses=2 type=float*]
  %temp1_val_15_load = load float* %temp1_val_15_addr, align 4, !dbg !291 ; [#uses=1 type=float] [debug line = 689:27@38:13]
  store float %temp1_val_15_load, float* %temp1_val_16_addr, align 4, !dbg !292 ; [debug line = 689:13@38:13]
  %temp1_val_14_addr = getelementptr [100 x float]* %temp1_val_14, i64 0, i64 %tmp_8 ; [#uses=2 type=float*]
  %temp1_val_14_load = load float* %temp1_val_14_addr, align 4, !dbg !291 ; [#uses=1 type=float] [debug line = 689:27@38:13]
  store float %temp1_val_14_load, float* %temp1_val_15_addr, align 4, !dbg !292 ; [debug line = 689:13@38:13]
  %temp1_val_13_addr = getelementptr [100 x float]* %temp1_val_13, i64 0, i64 %tmp_8 ; [#uses=2 type=float*]
  %temp1_val_13_load = load float* %temp1_val_13_addr, align 4, !dbg !291 ; [#uses=1 type=float] [debug line = 689:27@38:13]
  store float %temp1_val_13_load, float* %temp1_val_14_addr, align 4, !dbg !292 ; [debug line = 689:13@38:13]
  %temp1_val_12_addr = getelementptr [100 x float]* %temp1_val_12, i64 0, i64 %tmp_8 ; [#uses=2 type=float*]
  %temp1_val_12_load = load float* %temp1_val_12_addr, align 4, !dbg !291 ; [#uses=1 type=float] [debug line = 689:27@38:13]
  store float %temp1_val_12_load, float* %temp1_val_13_addr, align 4, !dbg !292 ; [debug line = 689:13@38:13]
  %temp1_val_11_addr = getelementptr [100 x float]* %temp1_val_11, i64 0, i64 %tmp_8 ; [#uses=2 type=float*]
  %temp1_val_11_load = load float* %temp1_val_11_addr, align 4, !dbg !291 ; [#uses=1 type=float] [debug line = 689:27@38:13]
  store float %temp1_val_11_load, float* %temp1_val_12_addr, align 4, !dbg !292 ; [debug line = 689:13@38:13]
  %temp1_val_10_addr = getelementptr [100 x float]* %temp1_val_10, i64 0, i64 %tmp_8 ; [#uses=2 type=float*]
  %temp1_val_10_load = load float* %temp1_val_10_addr, align 4, !dbg !291 ; [#uses=1 type=float] [debug line = 689:27@38:13]
  store float %temp1_val_10_load, float* %temp1_val_11_addr, align 4, !dbg !292 ; [debug line = 689:13@38:13]
  %temp1_val_9_addr = getelementptr [100 x float]* %temp1_val_9, i64 0, i64 %tmp_8 ; [#uses=2 type=float*]
  %temp1_val_9_load = load float* %temp1_val_9_addr, align 4, !dbg !291 ; [#uses=1 type=float] [debug line = 689:27@38:13]
  store float %temp1_val_9_load, float* %temp1_val_10_addr, align 4, !dbg !292 ; [debug line = 689:13@38:13]
  %temp1_val_8_addr = getelementptr [100 x float]* %temp1_val_8, i64 0, i64 %tmp_8 ; [#uses=2 type=float*]
  %temp1_val_8_load = load float* %temp1_val_8_addr, align 4, !dbg !291 ; [#uses=1 type=float] [debug line = 689:27@38:13]
  store float %temp1_val_8_load, float* %temp1_val_9_addr, align 4, !dbg !292 ; [debug line = 689:13@38:13]
  %temp1_val_7_addr = getelementptr [100 x float]* %temp1_val_7, i64 0, i64 %tmp_8 ; [#uses=2 type=float*]
  %temp1_val_7_load = load float* %temp1_val_7_addr, align 4, !dbg !291 ; [#uses=1 type=float] [debug line = 689:27@38:13]
  store float %temp1_val_7_load, float* %temp1_val_8_addr, align 4, !dbg !292 ; [debug line = 689:13@38:13]
  %temp1_val_6_addr = getelementptr [100 x float]* %temp1_val_6, i64 0, i64 %tmp_8 ; [#uses=2 type=float*]
  %temp1_val_6_load = load float* %temp1_val_6_addr, align 4, !dbg !291 ; [#uses=1 type=float] [debug line = 689:27@38:13]
  store float %temp1_val_6_load, float* %temp1_val_7_addr, align 4, !dbg !292 ; [debug line = 689:13@38:13]
  %temp1_val_5_addr = getelementptr [100 x float]* %temp1_val_5, i64 0, i64 %tmp_8 ; [#uses=2 type=float*]
  %temp1_val_5_load = load float* %temp1_val_5_addr, align 4, !dbg !291 ; [#uses=1 type=float] [debug line = 689:27@38:13]
  store float %temp1_val_5_load, float* %temp1_val_6_addr, align 4, !dbg !292 ; [debug line = 689:13@38:13]
  %temp1_val_4_addr = getelementptr [100 x float]* %temp1_val_4, i64 0, i64 %tmp_8 ; [#uses=2 type=float*]
  %temp1_val_4_load = load float* %temp1_val_4_addr, align 4, !dbg !291 ; [#uses=1 type=float] [debug line = 689:27@38:13]
  store float %temp1_val_4_load, float* %temp1_val_5_addr, align 4, !dbg !292 ; [debug line = 689:13@38:13]
  %temp1_val_3_addr = getelementptr [100 x float]* %temp1_val_3, i64 0, i64 %tmp_8 ; [#uses=2 type=float*]
  %temp1_val_3_load = load float* %temp1_val_3_addr, align 4, !dbg !291 ; [#uses=1 type=float] [debug line = 689:27@38:13]
  store float %temp1_val_3_load, float* %temp1_val_4_addr, align 4, !dbg !292 ; [debug line = 689:13@38:13]
  %temp1_val_2_addr = getelementptr [100 x float]* %temp1_val_2, i64 0, i64 %tmp_8 ; [#uses=2 type=float*]
  %temp1_val_2_load = load float* %temp1_val_2_addr, align 4, !dbg !291 ; [#uses=1 type=float] [debug line = 689:27@38:13]
  store float %temp1_val_2_load, float* %temp1_val_3_addr, align 4, !dbg !292 ; [debug line = 689:13@38:13]
  %temp1_val_1_addr = getelementptr [100 x float]* %temp1_val_1, i64 0, i64 %tmp_8 ; [#uses=2 type=float*]
  %temp1_val_1_load = load float* %temp1_val_1_addr, align 4, !dbg !291 ; [#uses=1 type=float] [debug line = 689:27@38:13]
  store float %temp1_val_1_load, float* %temp1_val_2_addr, align 4, !dbg !292 ; [debug line = 689:13@38:13]
  %temp1_val_0_addr = getelementptr [100 x float]* %temp1_val_0, i64 0, i64 %tmp_8 ; [#uses=2 type=float*]
  %temp1_val_0_load = load float* %temp1_val_0_addr, align 4, !dbg !291 ; [#uses=1 type=float] [debug line = 689:27@38:13]
  store float %temp1_val_0_load, float* %temp1_val_1_addr, align 4, !dbg !292 ; [debug line = 689:13@38:13]
  %val_addr = getelementptr [10000 x float]* %val, i64 0, i64 %tmp_5, !dbg !293 ; [#uses=1 type=float*] [debug line = 39:13]
  %val_load = load float* %val_addr, align 4, !dbg !293 ; [#uses=1 type=float] [debug line = 39:13]
  %col_addr = getelementptr [10000 x i32]* %col, i64 0, i64 %tmp_5, !dbg !293 ; [#uses=1 type=i32*] [debug line = 39:13]
  %col_load = load i32* %col_addr, align 4, !dbg !293 ; [#uses=1 type=i32] [debug line = 39:13]
  %tmp_s = sext i32 %col_load to i64, !dbg !293   ; [#uses=1 type=i64] [debug line = 39:13]
  %vector_addr = getelementptr [100 x float]* %vector, i64 0, i64 %tmp_s, !dbg !293 ; [#uses=1 type=float*] [debug line = 39:13]
  %vector_load = load float* %vector_addr, align 4, !dbg !293 ; [#uses=1 type=float] [debug line = 39:13]
  %value_assign = fmul float %val_load, %vector_load, !dbg !293 ; [#uses=1 type=float] [debug line = 39:13]
  call void @llvm.dbg.value(metadata !{float %value_assign}, i64 0, metadata !294) nounwind, !dbg !295 ; [debug line = 632:27@39:13] [debug variable = value]
  call void @llvm.dbg.value(metadata !{i32 %row_load}, i64 0, metadata !296) nounwind, !dbg !297 ; [debug line = 632:38@39:13] [debug variable = col]
  store float %value_assign, float* %temp1_val_0_addr, align 4, !dbg !298 ; [debug line = 797:5@39:13]
  br label %._crit_edge, !dbg !299                ; [debug line = 40:9]

._crit_edge:                                      ; preds = %.preheader.preheader.i29, %3
  call void @llvm.dbg.value(metadata !{i14 %i_2}, i64 0, metadata !300), !dbg !283 ; [debug line = 36:38] [debug variable = i]
  br label %.preheader14, !dbg !283               ; [debug line = 36:38]

.preheader13:                                     ; preds = %.preheader10, %.preheader14
  %k = phi i3 [ 0, %.preheader14 ], [ %k_1, %.preheader10 ] ; [#uses=2 type=i3]
  %exitcond5 = icmp eq i3 %k, -3, !dbg !301       ; [#uses=1 type=i1] [debug line = 43:19]
  %empty_8 = call i32 (...)* @_ssdm_op_SpecLoopTripCount(i64 5, i64 5, i64 5) nounwind ; [#uses=0 type=i32]
  %k_1 = add i3 %k, 1, !dbg !303                  ; [#uses=1 type=i3] [debug line = 43:28]
  call void @llvm.dbg.value(metadata !{i3 %k_1}, i64 0, metadata !304), !dbg !303 ; [debug line = 43:28] [debug variable = k]
  br i1 %exitcond5, label %.preheader, label %.preheader12, !dbg !301 ; [debug line = 43:19]

.preheader12:                                     ; preds = %.preheader11, %.preheader13
  %col_assign_2 = phi i7 [ 0, %.preheader13 ], [ %i_3, %.preheader11 ] ; [#uses=3 type=i7]
  call void @llvm.dbg.value(metadata !{i7 %col_assign_2}, i64 0, metadata !305) nounwind, !dbg !313 ; [debug line = 629:30@53:17] [debug variable = col]
  call void @llvm.dbg.value(metadata !{i7 %col_assign_2}, i64 0, metadata !314) nounwind, !dbg !317 ; [debug line = 630:32@49:21] [debug variable = col]
  %exitcond4 = icmp eq i7 %col_assign_2, -28, !dbg !318 ; [#uses=1 type=i1] [debug line = 45:23]
  %empty_9 = call i32 (...)* @_ssdm_op_SpecLoopTripCount(i64 100, i64 100, i64 100) nounwind ; [#uses=0 type=i32]
  %i_3 = add i7 %col_assign_2, 1, !dbg !319       ; [#uses=1 type=i7] [debug line = 45:35]
  call void @llvm.dbg.value(metadata !{i7 %i_3}, i64 0, metadata !320), !dbg !319 ; [debug line = 45:35] [debug variable = i]
  br i1 %exitcond4, label %.preheader10, label %.preheader11.preheader, !dbg !318 ; [debug line = 45:23]

.preheader11.preheader:                           ; preds = %.preheader12
  %tmp_3 = zext i7 %col_assign_2 to i64, !dbg !321 ; [#uses=40 type=i64] [debug line = 835:5@47:29]
  %temp1_val_0_addr_3 = getelementptr [100 x float]* %temp1_val_0, i64 0, i64 %tmp_3 ; [#uses=2 type=float*]
  %temp1_val_1_addr_2 = getelementptr [100 x float]* %temp1_val_1, i64 0, i64 %tmp_3 ; [#uses=2 type=float*]
  %temp2_val_18_addr_1 = getelementptr [100 x float]* %temp2_val_18, i64 0, i64 %tmp_3 ; [#uses=2 type=float*]
  %temp2_val_19_addr_1 = getelementptr [100 x float]* %temp2_val_19, i64 0, i64 %tmp_3 ; [#uses=1 type=float*]
  %temp2_val_17_addr_1 = getelementptr [100 x float]* %temp2_val_17, i64 0, i64 %tmp_3 ; [#uses=2 type=float*]
  %temp2_val_16_addr_1 = getelementptr [100 x float]* %temp2_val_16, i64 0, i64 %tmp_3 ; [#uses=2 type=float*]
  %temp2_val_15_addr_1 = getelementptr [100 x float]* %temp2_val_15, i64 0, i64 %tmp_3 ; [#uses=2 type=float*]
  %temp2_val_14_addr_1 = getelementptr [100 x float]* %temp2_val_14, i64 0, i64 %tmp_3 ; [#uses=2 type=float*]
  %temp2_val_13_addr_1 = getelementptr [100 x float]* %temp2_val_13, i64 0, i64 %tmp_3 ; [#uses=2 type=float*]
  %temp2_val_12_addr_1 = getelementptr [100 x float]* %temp2_val_12, i64 0, i64 %tmp_3 ; [#uses=2 type=float*]
  %temp2_val_11_addr_1 = getelementptr [100 x float]* %temp2_val_11, i64 0, i64 %tmp_3 ; [#uses=2 type=float*]
  %temp2_val_10_addr_1 = getelementptr [100 x float]* %temp2_val_10, i64 0, i64 %tmp_3 ; [#uses=2 type=float*]
  %temp2_val_9_addr_1 = getelementptr [100 x float]* %temp2_val_9, i64 0, i64 %tmp_3 ; [#uses=2 type=float*]
  %temp2_val_8_addr_1 = getelementptr [100 x float]* %temp2_val_8, i64 0, i64 %tmp_3 ; [#uses=2 type=float*]
  %temp2_val_7_addr_1 = getelementptr [100 x float]* %temp2_val_7, i64 0, i64 %tmp_3 ; [#uses=2 type=float*]
  %temp2_val_6_addr_1 = getelementptr [100 x float]* %temp2_val_6, i64 0, i64 %tmp_3 ; [#uses=2 type=float*]
  %temp2_val_5_addr_1 = getelementptr [100 x float]* %temp2_val_5, i64 0, i64 %tmp_3 ; [#uses=2 type=float*]
  %temp2_val_4_addr_1 = getelementptr [100 x float]* %temp2_val_4, i64 0, i64 %tmp_3 ; [#uses=2 type=float*]
  %temp2_val_3_addr_1 = getelementptr [100 x float]* %temp2_val_3, i64 0, i64 %tmp_3 ; [#uses=2 type=float*]
  %temp2_val_2_addr_1 = getelementptr [100 x float]* %temp2_val_2, i64 0, i64 %tmp_3 ; [#uses=2 type=float*]
  %temp2_val_1_addr_2 = getelementptr [100 x float]* %temp2_val_1, i64 0, i64 %tmp_3 ; [#uses=2 type=float*]
  %temp2_val_0_addr_2 = getelementptr [100 x float]* %temp2_val_0, i64 0, i64 %tmp_3 ; [#uses=2 type=float*]
  %temp1_val_2_addr_2 = getelementptr [100 x float]* %temp1_val_2, i64 0, i64 %tmp_3 ; [#uses=2 type=float*]
  %temp1_val_3_addr_2 = getelementptr [100 x float]* %temp1_val_3, i64 0, i64 %tmp_3 ; [#uses=2 type=float*]
  %temp1_val_4_addr_2 = getelementptr [100 x float]* %temp1_val_4, i64 0, i64 %tmp_3 ; [#uses=2 type=float*]
  %temp1_val_5_addr_2 = getelementptr [100 x float]* %temp1_val_5, i64 0, i64 %tmp_3 ; [#uses=2 type=float*]
  %temp1_val_6_addr_2 = getelementptr [100 x float]* %temp1_val_6, i64 0, i64 %tmp_3 ; [#uses=2 type=float*]
  %temp1_val_7_addr_2 = getelementptr [100 x float]* %temp1_val_7, i64 0, i64 %tmp_3 ; [#uses=2 type=float*]
  %temp1_val_8_addr_2 = getelementptr [100 x float]* %temp1_val_8, i64 0, i64 %tmp_3 ; [#uses=2 type=float*]
  %temp1_val_9_addr_2 = getelementptr [100 x float]* %temp1_val_9, i64 0, i64 %tmp_3 ; [#uses=2 type=float*]
  %temp1_val_10_addr_2 = getelementptr [100 x float]* %temp1_val_10, i64 0, i64 %tmp_3 ; [#uses=2 type=float*]
  %temp1_val_11_addr_2 = getelementptr [100 x float]* %temp1_val_11, i64 0, i64 %tmp_3 ; [#uses=2 type=float*]
  %temp1_val_12_addr_2 = getelementptr [100 x float]* %temp1_val_12, i64 0, i64 %tmp_3 ; [#uses=2 type=float*]
  %temp1_val_13_addr_2 = getelementptr [100 x float]* %temp1_val_13, i64 0, i64 %tmp_3 ; [#uses=2 type=float*]
  %temp1_val_14_addr_2 = getelementptr [100 x float]* %temp1_val_14, i64 0, i64 %tmp_3 ; [#uses=2 type=float*]
  %temp1_val_15_addr_2 = getelementptr [100 x float]* %temp1_val_15, i64 0, i64 %tmp_3 ; [#uses=2 type=float*]
  %temp1_val_16_addr_2 = getelementptr [100 x float]* %temp1_val_16, i64 0, i64 %tmp_3 ; [#uses=2 type=float*]
  %temp1_val_17_addr_2 = getelementptr [100 x float]* %temp1_val_17, i64 0, i64 %tmp_3 ; [#uses=2 type=float*]
  %temp1_val_18_addr_2 = getelementptr [100 x float]* %temp1_val_18, i64 0, i64 %tmp_3 ; [#uses=2 type=float*]
  %temp1_val_19_addr_2 = getelementptr [100 x float]* %temp1_val_19, i64 0, i64 %tmp_3 ; [#uses=1 type=float*]
  %temp1_val_19_load = load float* %temp1_val_19_addr_2, align 4, !dbg !325 ; [#uses=2 type=float] [debug line = 729:27@52:17]
  br label %.preheader11, !dbg !330               ; [debug line = 46:27]

.preheader11:                                     ; preds = %.preheader.i92.0, %.preheader11.preheader
  %j3 = phi i5 [ %j_2, %.preheader.i92.0 ], [ 0, %.preheader11.preheader ] ; [#uses=2 type=i5]
  %exitcond3 = icmp eq i5 %j3, -12, !dbg !330     ; [#uses=1 type=i1] [debug line = 46:27]
  %empty_10 = call i32 (...)* @_ssdm_op_SpecLoopTripCount(i64 20, i64 20, i64 20) nounwind ; [#uses=0 type=i32]
  %j_2 = add i5 %j3, 1, !dbg !331                 ; [#uses=1 type=i5] [debug line = 46:37]
  br i1 %exitcond3, label %.preheader12, label %getval.exit65, !dbg !330 ; [debug line = 46:27]

getval.exit65:                                    ; preds = %.preheader11
  call void @llvm.dbg.value(metadata !{i7 %col_assign_2}, i64 0, metadata !332) nounwind, !dbg !333 ; [debug line = 634:28@47:29] [debug variable = col]
  %temp1_val_0_load_3 = load float* %temp1_val_0_addr_3, align 4, !dbg !324 ; [#uses=1 type=float] [debug line = 47:29]
  call void @llvm.dbg.value(metadata !{i7 %col_assign_2}, i64 0, metadata !334) nounwind, !dbg !336 ; [debug line = 634:28@47:50] [debug variable = col]
  %temp1_val_1_load_2 = load float* %temp1_val_1_addr_2, align 4, !dbg !335 ; [#uses=1 type=float] [debug line = 47:50]
  %sum = fadd float %temp1_val_0_load_3, %temp1_val_1_load_2, !dbg !335 ; [#uses=3 type=float] [debug line = 47:50]
  call void @llvm.dbg.value(metadata !{float %sum}, i64 0, metadata !337), !dbg !335 ; [debug line = 47:50] [debug variable = sum]
  %sum_to_int = bitcast float %sum to i32         ; [#uses=2 type=i32]
  %tmp_6 = call i8 @_ssdm_op_PartSelect.i8.i32.i32.i32(i32 %sum_to_int, i32 23, i32 30) ; [#uses=1 type=i8]
  %tmp_7 = trunc i32 %sum_to_int to i23           ; [#uses=1 type=i23]
  %notlhs = icmp ne i8 %tmp_6, -1                 ; [#uses=1 type=i1]
  %notrhs = icmp eq i23 %tmp_7, 0                 ; [#uses=1 type=i1]
  %tmp_9 = or i1 %notrhs, %notlhs                 ; [#uses=1 type=i1]
  %tmp_10 = fcmp oeq float %sum, 0.000000e+00, !dbg !338 ; [#uses=1 type=i1] [debug line = 48:17]
  %tmp_11 = and i1 %tmp_9, %tmp_10, !dbg !338     ; [#uses=1 type=i1] [debug line = 48:17]
  br i1 %tmp_11, label %.preheader.i92.0, label %.preheader.i24.0, !dbg !338 ; [debug line = 48:17]

.preheader.i24.0:                                 ; preds = %getval.exit65
  %temp2_val_18_load_1 = load float* %temp2_val_18_addr_1, align 4, !dbg !339 ; [#uses=1 type=float] [debug line = 689:27@49:21]
  store float %temp2_val_18_load_1, float* %temp2_val_19_addr_1, align 4, !dbg !340 ; [debug line = 689:13@49:21]
  %temp2_val_17_load_1 = load float* %temp2_val_17_addr_1, align 4, !dbg !339 ; [#uses=1 type=float] [debug line = 689:27@49:21]
  store float %temp2_val_17_load_1, float* %temp2_val_18_addr_1, align 4, !dbg !340 ; [debug line = 689:13@49:21]
  %temp2_val_16_load_1 = load float* %temp2_val_16_addr_1, align 4, !dbg !339 ; [#uses=1 type=float] [debug line = 689:27@49:21]
  store float %temp2_val_16_load_1, float* %temp2_val_17_addr_1, align 4, !dbg !340 ; [debug line = 689:13@49:21]
  %temp2_val_15_load_1 = load float* %temp2_val_15_addr_1, align 4, !dbg !339 ; [#uses=1 type=float] [debug line = 689:27@49:21]
  store float %temp2_val_15_load_1, float* %temp2_val_16_addr_1, align 4, !dbg !340 ; [debug line = 689:13@49:21]
  %temp2_val_14_load_1 = load float* %temp2_val_14_addr_1, align 4, !dbg !339 ; [#uses=1 type=float] [debug line = 689:27@49:21]
  store float %temp2_val_14_load_1, float* %temp2_val_15_addr_1, align 4, !dbg !340 ; [debug line = 689:13@49:21]
  %temp2_val_13_load_1 = load float* %temp2_val_13_addr_1, align 4, !dbg !339 ; [#uses=1 type=float] [debug line = 689:27@49:21]
  store float %temp2_val_13_load_1, float* %temp2_val_14_addr_1, align 4, !dbg !340 ; [debug line = 689:13@49:21]
  %temp2_val_12_load_1 = load float* %temp2_val_12_addr_1, align 4, !dbg !339 ; [#uses=1 type=float] [debug line = 689:27@49:21]
  store float %temp2_val_12_load_1, float* %temp2_val_13_addr_1, align 4, !dbg !340 ; [debug line = 689:13@49:21]
  %temp2_val_11_load_1 = load float* %temp2_val_11_addr_1, align 4, !dbg !339 ; [#uses=1 type=float] [debug line = 689:27@49:21]
  store float %temp2_val_11_load_1, float* %temp2_val_12_addr_1, align 4, !dbg !340 ; [debug line = 689:13@49:21]
  %temp2_val_10_load_1 = load float* %temp2_val_10_addr_1, align 4, !dbg !339 ; [#uses=1 type=float] [debug line = 689:27@49:21]
  store float %temp2_val_10_load_1, float* %temp2_val_11_addr_1, align 4, !dbg !340 ; [debug line = 689:13@49:21]
  %temp2_val_9_load_1 = load float* %temp2_val_9_addr_1, align 4, !dbg !339 ; [#uses=1 type=float] [debug line = 689:27@49:21]
  store float %temp2_val_9_load_1, float* %temp2_val_10_addr_1, align 4, !dbg !340 ; [debug line = 689:13@49:21]
  %temp2_val_8_load_1 = load float* %temp2_val_8_addr_1, align 4, !dbg !339 ; [#uses=1 type=float] [debug line = 689:27@49:21]
  store float %temp2_val_8_load_1, float* %temp2_val_9_addr_1, align 4, !dbg !340 ; [debug line = 689:13@49:21]
  %temp2_val_7_load_1 = load float* %temp2_val_7_addr_1, align 4, !dbg !339 ; [#uses=1 type=float] [debug line = 689:27@49:21]
  store float %temp2_val_7_load_1, float* %temp2_val_8_addr_1, align 4, !dbg !340 ; [debug line = 689:13@49:21]
  %temp2_val_6_load_1 = load float* %temp2_val_6_addr_1, align 4, !dbg !339 ; [#uses=1 type=float] [debug line = 689:27@49:21]
  store float %temp2_val_6_load_1, float* %temp2_val_7_addr_1, align 4, !dbg !340 ; [debug line = 689:13@49:21]
  %temp2_val_5_load_1 = load float* %temp2_val_5_addr_1, align 4, !dbg !339 ; [#uses=1 type=float] [debug line = 689:27@49:21]
  store float %temp2_val_5_load_1, float* %temp2_val_6_addr_1, align 4, !dbg !340 ; [debug line = 689:13@49:21]
  %temp2_val_4_load_1 = load float* %temp2_val_4_addr_1, align 4, !dbg !339 ; [#uses=1 type=float] [debug line = 689:27@49:21]
  store float %temp2_val_4_load_1, float* %temp2_val_5_addr_1, align 4, !dbg !340 ; [debug line = 689:13@49:21]
  %temp2_val_3_load_1 = load float* %temp2_val_3_addr_1, align 4, !dbg !339 ; [#uses=1 type=float] [debug line = 689:27@49:21]
  store float %temp2_val_3_load_1, float* %temp2_val_4_addr_1, align 4, !dbg !340 ; [debug line = 689:13@49:21]
  %temp2_val_2_load_1 = load float* %temp2_val_2_addr_1, align 4, !dbg !339 ; [#uses=1 type=float] [debug line = 689:27@49:21]
  store float %temp2_val_2_load_1, float* %temp2_val_3_addr_1, align 4, !dbg !340 ; [debug line = 689:13@49:21]
  %temp2_val_1_load_2 = load float* %temp2_val_1_addr_2, align 4, !dbg !339 ; [#uses=1 type=float] [debug line = 689:27@49:21]
  store float %temp2_val_1_load_2, float* %temp2_val_2_addr_1, align 4, !dbg !340 ; [debug line = 689:13@49:21]
  %temp2_val_0_load_2 = load float* %temp2_val_0_addr_2, align 4, !dbg !339 ; [#uses=1 type=float] [debug line = 689:27@49:21]
  store float %temp2_val_0_load_2, float* %temp2_val_1_addr_2, align 4, !dbg !340 ; [debug line = 689:13@49:21]
  call void @llvm.dbg.value(metadata !{float %sum}, i64 0, metadata !341) nounwind, !dbg !343 ; [debug line = 632:27@50:21] [debug variable = value]
  call void @llvm.dbg.value(metadata !{i7 %col_assign_2}, i64 0, metadata !344) nounwind, !dbg !345 ; [debug line = 632:38@50:21] [debug variable = col]
  store float %sum, float* %temp2_val_0_addr_2, align 4, !dbg !346 ; [debug line = 797:5@50:21]
  br label %.preheader.i92.0, !dbg !347           ; [debug line = 51:17]

.preheader.i92.0:                                 ; preds = %.preheader.i24.0, %getval.exit65
  call void @llvm.dbg.value(metadata !{i7 %col_assign_2}, i64 0, metadata !348) nounwind, !dbg !349 ; [debug line = 629:30@52:17] [debug variable = col]
  %temp1_val_2_load_2 = load float* %temp1_val_2_addr_2, align 4, !dbg !325 ; [#uses=1 type=float] [debug line = 729:27@52:17]
  %temp1_val_3_load_2 = load float* %temp1_val_3_addr_2, align 4, !dbg !325 ; [#uses=1 type=float] [debug line = 729:27@52:17]
  %temp1_val_4_load_2 = load float* %temp1_val_4_addr_2, align 4, !dbg !325 ; [#uses=1 type=float] [debug line = 729:27@52:17]
  %temp1_val_5_load_2 = load float* %temp1_val_5_addr_2, align 4, !dbg !325 ; [#uses=1 type=float] [debug line = 729:27@52:17]
  %temp1_val_6_load_2 = load float* %temp1_val_6_addr_2, align 4, !dbg !325 ; [#uses=1 type=float] [debug line = 729:27@52:17]
  %temp1_val_7_load_2 = load float* %temp1_val_7_addr_2, align 4, !dbg !325 ; [#uses=1 type=float] [debug line = 729:27@52:17]
  %temp1_val_8_load_2 = load float* %temp1_val_8_addr_2, align 4, !dbg !325 ; [#uses=1 type=float] [debug line = 729:27@52:17]
  %temp1_val_9_load_2 = load float* %temp1_val_9_addr_2, align 4, !dbg !325 ; [#uses=1 type=float] [debug line = 729:27@52:17]
  %temp1_val_10_load_2 = load float* %temp1_val_10_addr_2, align 4, !dbg !325 ; [#uses=1 type=float] [debug line = 729:27@52:17]
  %temp1_val_11_load_2 = load float* %temp1_val_11_addr_2, align 4, !dbg !325 ; [#uses=1 type=float] [debug line = 729:27@52:17]
  %temp1_val_12_load_2 = load float* %temp1_val_12_addr_2, align 4, !dbg !325 ; [#uses=1 type=float] [debug line = 729:27@52:17]
  %temp1_val_13_load_2 = load float* %temp1_val_13_addr_2, align 4, !dbg !325 ; [#uses=1 type=float] [debug line = 729:27@52:17]
  %temp1_val_14_load_2 = load float* %temp1_val_14_addr_2, align 4, !dbg !325 ; [#uses=1 type=float] [debug line = 729:27@52:17]
  %temp1_val_15_load_2 = load float* %temp1_val_15_addr_2, align 4, !dbg !325 ; [#uses=1 type=float] [debug line = 729:27@52:17]
  %temp1_val_16_load_2 = load float* %temp1_val_16_addr_2, align 4, !dbg !325 ; [#uses=1 type=float] [debug line = 729:27@52:17]
  %temp1_val_17_load_2 = load float* %temp1_val_17_addr_2, align 4, !dbg !325 ; [#uses=1 type=float] [debug line = 729:27@52:17]
  %temp1_val_18_load_2 = load float* %temp1_val_18_addr_2, align 4, !dbg !325 ; [#uses=1 type=float] [debug line = 729:27@52:17]
  store float %temp1_val_2_load_2, float* %temp1_val_0_addr_3, align 4, !dbg !350 ; [debug line = 729:13@53:17]
  store float %temp1_val_3_load_2, float* %temp1_val_1_addr_2, align 4, !dbg !350 ; [debug line = 729:13@53:17]
  store float %temp1_val_4_load_2, float* %temp1_val_2_addr_2, align 4, !dbg !350 ; [debug line = 729:13@53:17]
  store float %temp1_val_5_load_2, float* %temp1_val_3_addr_2, align 4, !dbg !350 ; [debug line = 729:13@53:17]
  store float %temp1_val_6_load_2, float* %temp1_val_4_addr_2, align 4, !dbg !350 ; [debug line = 729:13@53:17]
  store float %temp1_val_7_load_2, float* %temp1_val_5_addr_2, align 4, !dbg !350 ; [debug line = 729:13@53:17]
  store float %temp1_val_8_load_2, float* %temp1_val_6_addr_2, align 4, !dbg !350 ; [debug line = 729:13@53:17]
  store float %temp1_val_9_load_2, float* %temp1_val_7_addr_2, align 4, !dbg !350 ; [debug line = 729:13@53:17]
  store float %temp1_val_10_load_2, float* %temp1_val_8_addr_2, align 4, !dbg !350 ; [debug line = 729:13@53:17]
  store float %temp1_val_11_load_2, float* %temp1_val_9_addr_2, align 4, !dbg !350 ; [debug line = 729:13@53:17]
  store float %temp1_val_12_load_2, float* %temp1_val_10_addr_2, align 4, !dbg !350 ; [debug line = 729:13@53:17]
  store float %temp1_val_13_load_2, float* %temp1_val_11_addr_2, align 4, !dbg !350 ; [debug line = 729:13@53:17]
  store float %temp1_val_14_load_2, float* %temp1_val_12_addr_2, align 4, !dbg !350 ; [debug line = 729:13@53:17]
  store float %temp1_val_15_load_2, float* %temp1_val_13_addr_2, align 4, !dbg !350 ; [debug line = 729:13@53:17]
  store float %temp1_val_16_load_2, float* %temp1_val_14_addr_2, align 4, !dbg !350 ; [debug line = 729:13@53:17]
  store float %temp1_val_17_load_2, float* %temp1_val_15_addr_2, align 4, !dbg !350 ; [debug line = 729:13@53:17]
  store float %temp1_val_18_load_2, float* %temp1_val_16_addr_2, align 4, !dbg !350 ; [debug line = 729:13@53:17]
  store float %temp1_val_19_load, float* %temp1_val_17_addr_2, align 4, !dbg !350 ; [debug line = 729:13@53:17]
  store float %temp1_val_19_load, float* %temp1_val_18_addr_2, align 4, !dbg !350 ; [debug line = 729:13@53:17]
  call void @llvm.dbg.value(metadata !{i5 %j_2}, i64 0, metadata !351), !dbg !331 ; [debug line = 46:37] [debug variable = j]
  br label %.preheader11, !dbg !331               ; [debug line = 46:37]

.preheader10:                                     ; preds = %.preheader9, %.preheader12
  %col_assign_4 = phi i7 [ 0, %.preheader12 ], [ %i_4, %.preheader9 ] ; [#uses=3 type=i7]
  call void @llvm.dbg.value(metadata !{i7 %col_assign_4}, i64 0, metadata !352) nounwind, !dbg !358 ; [debug line = 629:30@65:17] [debug variable = col]
  call void @llvm.dbg.value(metadata !{i7 %col_assign_4}, i64 0, metadata !359) nounwind, !dbg !362 ; [debug line = 630:32@61:21] [debug variable = col]
  %exitcond2 = icmp eq i7 %col_assign_4, -28, !dbg !363 ; [#uses=1 type=i1] [debug line = 57:23]
  %empty_11 = call i32 (...)* @_ssdm_op_SpecLoopTripCount(i64 100, i64 100, i64 100) nounwind ; [#uses=0 type=i32]
  %i_4 = add i7 %col_assign_4, 1, !dbg !364       ; [#uses=1 type=i7] [debug line = 57:35]
  call void @llvm.dbg.value(metadata !{i7 %i_4}, i64 0, metadata !365), !dbg !364 ; [debug line = 57:35] [debug variable = i]
  br i1 %exitcond2, label %.preheader13, label %.preheader9.preheader, !dbg !363 ; [debug line = 57:23]

.preheader9.preheader:                            ; preds = %.preheader10
  %tmp_4 = zext i7 %col_assign_4 to i64, !dbg !366 ; [#uses=40 type=i64] [debug line = 835:5@59:29]
  %temp2_val_0_addr_1 = getelementptr [100 x float]* %temp2_val_0, i64 0, i64 %tmp_4 ; [#uses=2 type=float*]
  %temp2_val_1_addr_1 = getelementptr [100 x float]* %temp2_val_1, i64 0, i64 %tmp_4 ; [#uses=2 type=float*]
  %temp1_val_18_addr_3 = getelementptr [100 x float]* %temp1_val_18, i64 0, i64 %tmp_4 ; [#uses=2 type=float*]
  %temp1_val_19_addr_3 = getelementptr [100 x float]* %temp1_val_19, i64 0, i64 %tmp_4 ; [#uses=1 type=float*]
  %temp1_val_17_addr_3 = getelementptr [100 x float]* %temp1_val_17, i64 0, i64 %tmp_4 ; [#uses=2 type=float*]
  %temp1_val_16_addr_3 = getelementptr [100 x float]* %temp1_val_16, i64 0, i64 %tmp_4 ; [#uses=2 type=float*]
  %temp1_val_15_addr_3 = getelementptr [100 x float]* %temp1_val_15, i64 0, i64 %tmp_4 ; [#uses=2 type=float*]
  %temp1_val_14_addr_3 = getelementptr [100 x float]* %temp1_val_14, i64 0, i64 %tmp_4 ; [#uses=2 type=float*]
  %temp1_val_13_addr_3 = getelementptr [100 x float]* %temp1_val_13, i64 0, i64 %tmp_4 ; [#uses=2 type=float*]
  %temp1_val_12_addr_3 = getelementptr [100 x float]* %temp1_val_12, i64 0, i64 %tmp_4 ; [#uses=2 type=float*]
  %temp1_val_11_addr_3 = getelementptr [100 x float]* %temp1_val_11, i64 0, i64 %tmp_4 ; [#uses=2 type=float*]
  %temp1_val_10_addr_3 = getelementptr [100 x float]* %temp1_val_10, i64 0, i64 %tmp_4 ; [#uses=2 type=float*]
  %temp1_val_9_addr_3 = getelementptr [100 x float]* %temp1_val_9, i64 0, i64 %tmp_4 ; [#uses=2 type=float*]
  %temp1_val_8_addr_3 = getelementptr [100 x float]* %temp1_val_8, i64 0, i64 %tmp_4 ; [#uses=2 type=float*]
  %temp1_val_7_addr_3 = getelementptr [100 x float]* %temp1_val_7, i64 0, i64 %tmp_4 ; [#uses=2 type=float*]
  %temp1_val_6_addr_3 = getelementptr [100 x float]* %temp1_val_6, i64 0, i64 %tmp_4 ; [#uses=2 type=float*]
  %temp1_val_5_addr_3 = getelementptr [100 x float]* %temp1_val_5, i64 0, i64 %tmp_4 ; [#uses=2 type=float*]
  %temp1_val_4_addr_3 = getelementptr [100 x float]* %temp1_val_4, i64 0, i64 %tmp_4 ; [#uses=2 type=float*]
  %temp1_val_3_addr_3 = getelementptr [100 x float]* %temp1_val_3, i64 0, i64 %tmp_4 ; [#uses=2 type=float*]
  %temp1_val_2_addr_3 = getelementptr [100 x float]* %temp1_val_2, i64 0, i64 %tmp_4 ; [#uses=2 type=float*]
  %temp1_val_1_addr_3 = getelementptr [100 x float]* %temp1_val_1, i64 0, i64 %tmp_4 ; [#uses=2 type=float*]
  %temp1_val_0_addr_4 = getelementptr [100 x float]* %temp1_val_0, i64 0, i64 %tmp_4 ; [#uses=2 type=float*]
  %temp2_val_2_addr_2 = getelementptr [100 x float]* %temp2_val_2, i64 0, i64 %tmp_4 ; [#uses=2 type=float*]
  %temp2_val_3_addr_2 = getelementptr [100 x float]* %temp2_val_3, i64 0, i64 %tmp_4 ; [#uses=2 type=float*]
  %temp2_val_4_addr_2 = getelementptr [100 x float]* %temp2_val_4, i64 0, i64 %tmp_4 ; [#uses=2 type=float*]
  %temp2_val_5_addr_2 = getelementptr [100 x float]* %temp2_val_5, i64 0, i64 %tmp_4 ; [#uses=2 type=float*]
  %temp2_val_6_addr_2 = getelementptr [100 x float]* %temp2_val_6, i64 0, i64 %tmp_4 ; [#uses=2 type=float*]
  %temp2_val_7_addr_2 = getelementptr [100 x float]* %temp2_val_7, i64 0, i64 %tmp_4 ; [#uses=2 type=float*]
  %temp2_val_8_addr_2 = getelementptr [100 x float]* %temp2_val_8, i64 0, i64 %tmp_4 ; [#uses=2 type=float*]
  %temp2_val_9_addr_2 = getelementptr [100 x float]* %temp2_val_9, i64 0, i64 %tmp_4 ; [#uses=2 type=float*]
  %temp2_val_10_addr_2 = getelementptr [100 x float]* %temp2_val_10, i64 0, i64 %tmp_4 ; [#uses=2 type=float*]
  %temp2_val_11_addr_2 = getelementptr [100 x float]* %temp2_val_11, i64 0, i64 %tmp_4 ; [#uses=2 type=float*]
  %temp2_val_12_addr_2 = getelementptr [100 x float]* %temp2_val_12, i64 0, i64 %tmp_4 ; [#uses=2 type=float*]
  %temp2_val_13_addr_2 = getelementptr [100 x float]* %temp2_val_13, i64 0, i64 %tmp_4 ; [#uses=2 type=float*]
  %temp2_val_14_addr_2 = getelementptr [100 x float]* %temp2_val_14, i64 0, i64 %tmp_4 ; [#uses=2 type=float*]
  %temp2_val_15_addr_2 = getelementptr [100 x float]* %temp2_val_15, i64 0, i64 %tmp_4 ; [#uses=2 type=float*]
  %temp2_val_16_addr_2 = getelementptr [100 x float]* %temp2_val_16, i64 0, i64 %tmp_4 ; [#uses=2 type=float*]
  %temp2_val_17_addr_2 = getelementptr [100 x float]* %temp2_val_17, i64 0, i64 %tmp_4 ; [#uses=2 type=float*]
  %temp2_val_18_addr_2 = getelementptr [100 x float]* %temp2_val_18, i64 0, i64 %tmp_4 ; [#uses=2 type=float*]
  %temp2_val_19_addr_2 = getelementptr [100 x float]* %temp2_val_19, i64 0, i64 %tmp_4 ; [#uses=1 type=float*]
  %temp2_val_19_load = load float* %temp2_val_19_addr_2, align 4, !dbg !368 ; [#uses=2 type=float] [debug line = 729:27@64:17]
  br label %.preheader9, !dbg !370                ; [debug line = 58:27]

.preheader9:                                      ; preds = %.preheader.i76.0, %.preheader9.preheader
  %j5 = phi i5 [ %j_3, %.preheader.i76.0 ], [ 0, %.preheader9.preheader ] ; [#uses=2 type=i5]
  %exitcond1 = icmp eq i5 %j5, -12, !dbg !370     ; [#uses=1 type=i1] [debug line = 58:27]
  %empty_12 = call i32 (...)* @_ssdm_op_SpecLoopTripCount(i64 20, i64 20, i64 20) nounwind ; [#uses=0 type=i32]
  %j_3 = add i5 %j5, 1, !dbg !371                 ; [#uses=1 type=i5] [debug line = 58:37]
  br i1 %exitcond1, label %.preheader10, label %getval.exit61, !dbg !370 ; [debug line = 58:27]

getval.exit61:                                    ; preds = %.preheader9
  call void @llvm.dbg.value(metadata !{i7 %col_assign_4}, i64 0, metadata !372) nounwind, !dbg !373 ; [debug line = 634:28@59:29] [debug variable = col]
  %temp2_val_0_load_1 = load float* %temp2_val_0_addr_1, align 4, !dbg !367 ; [#uses=1 type=float] [debug line = 59:29]
  call void @llvm.dbg.value(metadata !{i7 %col_assign_4}, i64 0, metadata !374) nounwind, !dbg !376 ; [debug line = 634:28@59:50] [debug variable = col]
  %temp2_val_1_load_1 = load float* %temp2_val_1_addr_1, align 4, !dbg !375 ; [#uses=1 type=float] [debug line = 59:50]
  %sum_1 = fadd float %temp2_val_0_load_1, %temp2_val_1_load_1, !dbg !375 ; [#uses=3 type=float] [debug line = 59:50]
  call void @llvm.dbg.value(metadata !{float %sum_1}, i64 0, metadata !377), !dbg !375 ; [debug line = 59:50] [debug variable = sum]
  %sum_1_to_int = bitcast float %sum_1 to i32     ; [#uses=2 type=i32]
  %tmp_12 = call i8 @_ssdm_op_PartSelect.i8.i32.i32.i32(i32 %sum_1_to_int, i32 23, i32 30) ; [#uses=1 type=i8]
  %tmp_13 = trunc i32 %sum_1_to_int to i23        ; [#uses=1 type=i23]
  %notlhs7 = icmp ne i8 %tmp_12, -1               ; [#uses=1 type=i1]
  %notrhs8 = icmp eq i23 %tmp_13, 0               ; [#uses=1 type=i1]
  %tmp_14 = or i1 %notrhs8, %notlhs7              ; [#uses=1 type=i1]
  %tmp_15 = fcmp oeq float %sum_1, 0.000000e+00, !dbg !378 ; [#uses=1 type=i1] [debug line = 60:17]
  %tmp_16 = and i1 %tmp_14, %tmp_15, !dbg !378    ; [#uses=1 type=i1] [debug line = 60:17]
  br i1 %tmp_16, label %.preheader.i76.0, label %.preheader.i.0, !dbg !378 ; [debug line = 60:17]

.preheader.i.0:                                   ; preds = %getval.exit61
  %temp1_val_18_load_3 = load float* %temp1_val_18_addr_3, align 4, !dbg !379 ; [#uses=1 type=float] [debug line = 689:27@61:21]
  store float %temp1_val_18_load_3, float* %temp1_val_19_addr_3, align 4, !dbg !380 ; [debug line = 689:13@61:21]
  %temp1_val_17_load_3 = load float* %temp1_val_17_addr_3, align 4, !dbg !379 ; [#uses=1 type=float] [debug line = 689:27@61:21]
  store float %temp1_val_17_load_3, float* %temp1_val_18_addr_3, align 4, !dbg !380 ; [debug line = 689:13@61:21]
  %temp1_val_16_load_3 = load float* %temp1_val_16_addr_3, align 4, !dbg !379 ; [#uses=1 type=float] [debug line = 689:27@61:21]
  store float %temp1_val_16_load_3, float* %temp1_val_17_addr_3, align 4, !dbg !380 ; [debug line = 689:13@61:21]
  %temp1_val_15_load_3 = load float* %temp1_val_15_addr_3, align 4, !dbg !379 ; [#uses=1 type=float] [debug line = 689:27@61:21]
  store float %temp1_val_15_load_3, float* %temp1_val_16_addr_3, align 4, !dbg !380 ; [debug line = 689:13@61:21]
  %temp1_val_14_load_3 = load float* %temp1_val_14_addr_3, align 4, !dbg !379 ; [#uses=1 type=float] [debug line = 689:27@61:21]
  store float %temp1_val_14_load_3, float* %temp1_val_15_addr_3, align 4, !dbg !380 ; [debug line = 689:13@61:21]
  %temp1_val_13_load_3 = load float* %temp1_val_13_addr_3, align 4, !dbg !379 ; [#uses=1 type=float] [debug line = 689:27@61:21]
  store float %temp1_val_13_load_3, float* %temp1_val_14_addr_3, align 4, !dbg !380 ; [debug line = 689:13@61:21]
  %temp1_val_12_load_3 = load float* %temp1_val_12_addr_3, align 4, !dbg !379 ; [#uses=1 type=float] [debug line = 689:27@61:21]
  store float %temp1_val_12_load_3, float* %temp1_val_13_addr_3, align 4, !dbg !380 ; [debug line = 689:13@61:21]
  %temp1_val_11_load_3 = load float* %temp1_val_11_addr_3, align 4, !dbg !379 ; [#uses=1 type=float] [debug line = 689:27@61:21]
  store float %temp1_val_11_load_3, float* %temp1_val_12_addr_3, align 4, !dbg !380 ; [debug line = 689:13@61:21]
  %temp1_val_10_load_3 = load float* %temp1_val_10_addr_3, align 4, !dbg !379 ; [#uses=1 type=float] [debug line = 689:27@61:21]
  store float %temp1_val_10_load_3, float* %temp1_val_11_addr_3, align 4, !dbg !380 ; [debug line = 689:13@61:21]
  %temp1_val_9_load_3 = load float* %temp1_val_9_addr_3, align 4, !dbg !379 ; [#uses=1 type=float] [debug line = 689:27@61:21]
  store float %temp1_val_9_load_3, float* %temp1_val_10_addr_3, align 4, !dbg !380 ; [debug line = 689:13@61:21]
  %temp1_val_8_load_3 = load float* %temp1_val_8_addr_3, align 4, !dbg !379 ; [#uses=1 type=float] [debug line = 689:27@61:21]
  store float %temp1_val_8_load_3, float* %temp1_val_9_addr_3, align 4, !dbg !380 ; [debug line = 689:13@61:21]
  %temp1_val_7_load_3 = load float* %temp1_val_7_addr_3, align 4, !dbg !379 ; [#uses=1 type=float] [debug line = 689:27@61:21]
  store float %temp1_val_7_load_3, float* %temp1_val_8_addr_3, align 4, !dbg !380 ; [debug line = 689:13@61:21]
  %temp1_val_6_load_3 = load float* %temp1_val_6_addr_3, align 4, !dbg !379 ; [#uses=1 type=float] [debug line = 689:27@61:21]
  store float %temp1_val_6_load_3, float* %temp1_val_7_addr_3, align 4, !dbg !380 ; [debug line = 689:13@61:21]
  %temp1_val_5_load_3 = load float* %temp1_val_5_addr_3, align 4, !dbg !379 ; [#uses=1 type=float] [debug line = 689:27@61:21]
  store float %temp1_val_5_load_3, float* %temp1_val_6_addr_3, align 4, !dbg !380 ; [debug line = 689:13@61:21]
  %temp1_val_4_load_3 = load float* %temp1_val_4_addr_3, align 4, !dbg !379 ; [#uses=1 type=float] [debug line = 689:27@61:21]
  store float %temp1_val_4_load_3, float* %temp1_val_5_addr_3, align 4, !dbg !380 ; [debug line = 689:13@61:21]
  %temp1_val_3_load_3 = load float* %temp1_val_3_addr_3, align 4, !dbg !379 ; [#uses=1 type=float] [debug line = 689:27@61:21]
  store float %temp1_val_3_load_3, float* %temp1_val_4_addr_3, align 4, !dbg !380 ; [debug line = 689:13@61:21]
  %temp1_val_2_load_3 = load float* %temp1_val_2_addr_3, align 4, !dbg !379 ; [#uses=1 type=float] [debug line = 689:27@61:21]
  store float %temp1_val_2_load_3, float* %temp1_val_3_addr_3, align 4, !dbg !380 ; [debug line = 689:13@61:21]
  %temp1_val_1_load_3 = load float* %temp1_val_1_addr_3, align 4, !dbg !379 ; [#uses=1 type=float] [debug line = 689:27@61:21]
  store float %temp1_val_1_load_3, float* %temp1_val_2_addr_3, align 4, !dbg !380 ; [debug line = 689:13@61:21]
  %temp1_val_0_load_4 = load float* %temp1_val_0_addr_4, align 4, !dbg !379 ; [#uses=1 type=float] [debug line = 689:27@61:21]
  store float %temp1_val_0_load_4, float* %temp1_val_1_addr_3, align 4, !dbg !380 ; [debug line = 689:13@61:21]
  call void @llvm.dbg.value(metadata !{float %sum_1}, i64 0, metadata !381) nounwind, !dbg !383 ; [debug line = 632:27@62:21] [debug variable = value]
  call void @llvm.dbg.value(metadata !{i7 %col_assign_4}, i64 0, metadata !384) nounwind, !dbg !385 ; [debug line = 632:38@62:21] [debug variable = col]
  store float %sum_1, float* %temp1_val_0_addr_4, align 4, !dbg !386 ; [debug line = 797:5@62:21]
  br label %.preheader.i76.0, !dbg !387           ; [debug line = 63:17]

.preheader.i76.0:                                 ; preds = %.preheader.i.0, %getval.exit61
  call void @llvm.dbg.value(metadata !{i7 %col_assign_4}, i64 0, metadata !388) nounwind, !dbg !389 ; [debug line = 629:30@64:17] [debug variable = col]
  %temp2_val_2_load_2 = load float* %temp2_val_2_addr_2, align 4, !dbg !368 ; [#uses=1 type=float] [debug line = 729:27@64:17]
  %temp2_val_3_load_2 = load float* %temp2_val_3_addr_2, align 4, !dbg !368 ; [#uses=1 type=float] [debug line = 729:27@64:17]
  %temp2_val_4_load_2 = load float* %temp2_val_4_addr_2, align 4, !dbg !368 ; [#uses=1 type=float] [debug line = 729:27@64:17]
  %temp2_val_5_load_2 = load float* %temp2_val_5_addr_2, align 4, !dbg !368 ; [#uses=1 type=float] [debug line = 729:27@64:17]
  %temp2_val_6_load_2 = load float* %temp2_val_6_addr_2, align 4, !dbg !368 ; [#uses=1 type=float] [debug line = 729:27@64:17]
  %temp2_val_7_load_2 = load float* %temp2_val_7_addr_2, align 4, !dbg !368 ; [#uses=1 type=float] [debug line = 729:27@64:17]
  %temp2_val_8_load_2 = load float* %temp2_val_8_addr_2, align 4, !dbg !368 ; [#uses=1 type=float] [debug line = 729:27@64:17]
  %temp2_val_9_load_2 = load float* %temp2_val_9_addr_2, align 4, !dbg !368 ; [#uses=1 type=float] [debug line = 729:27@64:17]
  %temp2_val_10_load_2 = load float* %temp2_val_10_addr_2, align 4, !dbg !368 ; [#uses=1 type=float] [debug line = 729:27@64:17]
  %temp2_val_11_load_2 = load float* %temp2_val_11_addr_2, align 4, !dbg !368 ; [#uses=1 type=float] [debug line = 729:27@64:17]
  %temp2_val_12_load_2 = load float* %temp2_val_12_addr_2, align 4, !dbg !368 ; [#uses=1 type=float] [debug line = 729:27@64:17]
  %temp2_val_13_load_2 = load float* %temp2_val_13_addr_2, align 4, !dbg !368 ; [#uses=1 type=float] [debug line = 729:27@64:17]
  %temp2_val_14_load_2 = load float* %temp2_val_14_addr_2, align 4, !dbg !368 ; [#uses=1 type=float] [debug line = 729:27@64:17]
  %temp2_val_15_load_2 = load float* %temp2_val_15_addr_2, align 4, !dbg !368 ; [#uses=1 type=float] [debug line = 729:27@64:17]
  %temp2_val_16_load_2 = load float* %temp2_val_16_addr_2, align 4, !dbg !368 ; [#uses=1 type=float] [debug line = 729:27@64:17]
  %temp2_val_17_load_2 = load float* %temp2_val_17_addr_2, align 4, !dbg !368 ; [#uses=1 type=float] [debug line = 729:27@64:17]
  %temp2_val_18_load_2 = load float* %temp2_val_18_addr_2, align 4, !dbg !368 ; [#uses=1 type=float] [debug line = 729:27@64:17]
  store float %temp2_val_2_load_2, float* %temp2_val_0_addr_1, align 4, !dbg !390 ; [debug line = 729:13@65:17]
  store float %temp2_val_3_load_2, float* %temp2_val_1_addr_1, align 4, !dbg !390 ; [debug line = 729:13@65:17]
  store float %temp2_val_4_load_2, float* %temp2_val_2_addr_2, align 4, !dbg !390 ; [debug line = 729:13@65:17]
  store float %temp2_val_5_load_2, float* %temp2_val_3_addr_2, align 4, !dbg !390 ; [debug line = 729:13@65:17]
  store float %temp2_val_6_load_2, float* %temp2_val_4_addr_2, align 4, !dbg !390 ; [debug line = 729:13@65:17]
  store float %temp2_val_7_load_2, float* %temp2_val_5_addr_2, align 4, !dbg !390 ; [debug line = 729:13@65:17]
  store float %temp2_val_8_load_2, float* %temp2_val_6_addr_2, align 4, !dbg !390 ; [debug line = 729:13@65:17]
  store float %temp2_val_9_load_2, float* %temp2_val_7_addr_2, align 4, !dbg !390 ; [debug line = 729:13@65:17]
  store float %temp2_val_10_load_2, float* %temp2_val_8_addr_2, align 4, !dbg !390 ; [debug line = 729:13@65:17]
  store float %temp2_val_11_load_2, float* %temp2_val_9_addr_2, align 4, !dbg !390 ; [debug line = 729:13@65:17]
  store float %temp2_val_12_load_2, float* %temp2_val_10_addr_2, align 4, !dbg !390 ; [debug line = 729:13@65:17]
  store float %temp2_val_13_load_2, float* %temp2_val_11_addr_2, align 4, !dbg !390 ; [debug line = 729:13@65:17]
  store float %temp2_val_14_load_2, float* %temp2_val_12_addr_2, align 4, !dbg !390 ; [debug line = 729:13@65:17]
  store float %temp2_val_15_load_2, float* %temp2_val_13_addr_2, align 4, !dbg !390 ; [debug line = 729:13@65:17]
  store float %temp2_val_16_load_2, float* %temp2_val_14_addr_2, align 4, !dbg !390 ; [debug line = 729:13@65:17]
  store float %temp2_val_17_load_2, float* %temp2_val_15_addr_2, align 4, !dbg !390 ; [debug line = 729:13@65:17]
  store float %temp2_val_18_load_2, float* %temp2_val_16_addr_2, align 4, !dbg !390 ; [debug line = 729:13@65:17]
  store float %temp2_val_19_load, float* %temp2_val_17_addr_2, align 4, !dbg !390 ; [debug line = 729:13@65:17]
  store float %temp2_val_19_load, float* %temp2_val_18_addr_2, align 4, !dbg !390 ; [debug line = 729:13@65:17]
  call void @llvm.dbg.value(metadata !{i5 %j_3}, i64 0, metadata !391), !dbg !371 ; [debug line = 58:37] [debug variable = j]
  br label %.preheader9, !dbg !371                ; [debug line = 58:37]

.preheader:                                       ; preds = %getval.exit, %.preheader13
  %col_assign_3 = phi i7 [ %i, %getval.exit ], [ 0, %.preheader13 ] ; [#uses=3 type=i7]
  %exitcond = icmp eq i7 %col_assign_3, -28, !dbg !392 ; [#uses=1 type=i1] [debug line = 70:19]
  %empty_13 = call i32 (...)* @_ssdm_op_SpecLoopTripCount(i64 100, i64 100, i64 100) nounwind ; [#uses=0 type=i32]
  %i = add i7 %col_assign_3, 1, !dbg !394         ; [#uses=1 type=i7] [debug line = 70:31]
  br i1 %exitcond, label %4, label %getval.exit, !dbg !392 ; [debug line = 70:19]

getval.exit:                                      ; preds = %.preheader
  call void @llvm.dbg.value(metadata !{i7 %col_assign_3}, i64 0, metadata !395) nounwind, !dbg !398 ; [debug line = 634:28@71:21] [debug variable = col]
  %tmp_2 = zext i7 %col_assign_3 to i64, !dbg !399 ; [#uses=2 type=i64] [debug line = 835:5@71:21]
  %temp1_val_0_addr_2 = getelementptr [100 x float]* %temp1_val_0, i64 0, i64 %tmp_2 ; [#uses=1 type=float*]
  %temp1_val_0_load_2 = load float* %temp1_val_0_addr_2, align 4, !dbg !396 ; [#uses=1 type=float] [debug line = 71:21]
  %output_addr_1 = getelementptr [100 x float]* %output, i64 0, i64 %tmp_2, !dbg !396 ; [#uses=1 type=float*] [debug line = 71:21]
  store float %temp1_val_0_load_2, float* %output_addr_1, align 4, !dbg !396 ; [debug line = 71:21]
  call void @llvm.dbg.value(metadata !{i7 %i}, i64 0, metadata !400), !dbg !394 ; [debug line = 70:31] [debug variable = i]
  br label %.preheader, !dbg !394                 ; [debug line = 70:31]

; <label>:4                                       ; preds = %.preheader
  ret void, !dbg !401                             ; [debug line = 109:1]
}

!opencl.kernels = !{!0, !7, !13, !19, !24, !26, !26, !28, !34, !28, !28, !37, !26, !26, !28, !43, !28, !28, !28, !46, !46, !48, !48, !50, !51, !52, !52, !28, !28, !54, !28, !28, !56, !59, !19, !24, !34, !37, !43, !50, !51, !28, !28, !62, !62, !65, !28, !67, !28, !28, !28, !69, !69, !71, !71, !72, !28, !28, !28, !74, !76, !78, !78, !80, !28, !28, !28, !28, !28, !28, !82, !28, !28, !28, !28, !62, !62, !65, !82, !28, !62, !62, !65, !82, !28, !84, !84, !84, !28, !84, !84, !84, !28, !84, !84, !84, !28, !84, !84, !84, !84, !84, !84, !84, !84, !84, !28, !84, !84, !84, !28, !84, !84, !84, !28, !84, !84, !84, !28, !84, !84, !84, !28, !84, !84, !84, !84, !84, !84, !87, !87, !87, !28, !84, !84, !84, !28, !84, !84, !84, !28, !84, !84, !84, !28, !87, !87, !87, !28, !87, !87, !87, !28, !28, !28, !28, !28, !28}
!hls.encrypted.func = !{}
!llvm.map.gv = !{!92}

!0 = metadata !{null, metadata !1, metadata !2, metadata !3, metadata !4, metadata !5, metadata !6}
!1 = metadata !{metadata !"kernel_arg_addr_space", i32 1, i32 1, i32 1, i32 1, i32 1, i32 0}
!2 = metadata !{metadata !"kernel_arg_access_qual", metadata !"none", metadata !"none", metadata !"none", metadata !"none", metadata !"none", metadata !"none"}
!3 = metadata !{metadata !"kernel_arg_type", metadata !"int*", metadata !"int*", metadata !"float*", metadata !"float*", metadata !"float*", metadata !"int"}
!4 = metadata !{metadata !"kernel_arg_type_qual", metadata !"", metadata !"", metadata !"", metadata !"const", metadata !"", metadata !""}
!5 = metadata !{metadata !"kernel_arg_name", metadata !"row", metadata !"col", metadata !"val", metadata !"vector", metadata !"output", metadata !"nnz"}
!6 = metadata !{metadata !"reqd_work_group_size", i32 1, i32 1, i32 1}
!7 = metadata !{null, metadata !8, metadata !9, metadata !10, metadata !11, metadata !12, metadata !6}
!8 = metadata !{metadata !"kernel_arg_addr_space", i32 1, i32 1, i32 1, i32 1}
!9 = metadata !{metadata !"kernel_arg_access_qual", metadata !"none", metadata !"none", metadata !"none", metadata !"none"}
!10 = metadata !{metadata !"kernel_arg_type", metadata !"const float [100]*", metadata !"int*", metadata !"int*", metadata !"float*"}
!11 = metadata !{metadata !"kernel_arg_type_qual", metadata !"const", metadata !"", metadata !"", metadata !""}
!12 = metadata !{metadata !"kernel_arg_name", metadata !"input", metadata !"row", metadata !"col", metadata !"val"}
!13 = metadata !{null, metadata !14, metadata !15, metadata !16, metadata !17, metadata !18, metadata !6}
!14 = metadata !{metadata !"kernel_arg_addr_space", i32 1}
!15 = metadata !{metadata !"kernel_arg_access_qual", metadata !"none"}
!16 = metadata !{metadata !"kernel_arg_type", metadata !"const float [100]*"}
!17 = metadata !{metadata !"kernel_arg_type_qual", metadata !"const"}
!18 = metadata !{metadata !"kernel_arg_name", metadata !"input"}
!19 = metadata !{null, metadata !20, metadata !15, metadata !21, metadata !22, metadata !23, metadata !6}
!20 = metadata !{metadata !"kernel_arg_addr_space", i32 0}
!21 = metadata !{metadata !"kernel_arg_type", metadata !"int"}
!22 = metadata !{metadata !"kernel_arg_type_qual", metadata !""}
!23 = metadata !{metadata !"kernel_arg_name", metadata !"col"}
!24 = metadata !{null, metadata !20, metadata !15, metadata !21, metadata !22, metadata !25, metadata !6}
!25 = metadata !{metadata !"kernel_arg_name", metadata !""}
!26 = metadata !{null, metadata !20, metadata !15, metadata !21, metadata !22, metadata !27, metadata !6}
!27 = metadata !{metadata !"kernel_arg_name", metadata !"op"}
!28 = metadata !{null, metadata !29, metadata !30, metadata !31, metadata !32, metadata !33, metadata !6}
!29 = metadata !{metadata !"kernel_arg_addr_space"}
!30 = metadata !{metadata !"kernel_arg_access_qual"}
!31 = metadata !{metadata !"kernel_arg_type"}
!32 = metadata !{metadata !"kernel_arg_type_qual"}
!33 = metadata !{metadata !"kernel_arg_name"}
!34 = metadata !{null, metadata !20, metadata !15, metadata !35, metadata !22, metadata !36, metadata !6}
!35 = metadata !{metadata !"kernel_arg_type", metadata !"const ap_int_base<1, false> &"}
!36 = metadata !{metadata !"kernel_arg_name", metadata !"op2"}
!37 = metadata !{null, metadata !38, metadata !39, metadata !40, metadata !41, metadata !42, metadata !6}
!38 = metadata !{metadata !"kernel_arg_addr_space", i32 0, i32 0}
!39 = metadata !{metadata !"kernel_arg_access_qual", metadata !"none", metadata !"none"}
!40 = metadata !{metadata !"kernel_arg_type", metadata !"const ap_int_base<12, false> &", metadata !"int"}
!41 = metadata !{metadata !"kernel_arg_type_qual", metadata !"", metadata !""}
!42 = metadata !{metadata !"kernel_arg_name", metadata !"op", metadata !"i_op"}
!43 = metadata !{null, metadata !38, metadata !39, metadata !44, metadata !41, metadata !45, metadata !6}
!44 = metadata !{metadata !"kernel_arg_type", metadata !"const ap_int_base<12, false> &", metadata !"const ap_int_base<32, true> &"}
!45 = metadata !{metadata !"kernel_arg_name", metadata !"op", metadata !"op2"}
!46 = metadata !{null, metadata !20, metadata !15, metadata !47, metadata !22, metadata !27, metadata !6}
!47 = metadata !{metadata !"kernel_arg_type", metadata !"const ap_int_base<32, true> &"}
!48 = metadata !{null, metadata !20, metadata !15, metadata !49, metadata !22, metadata !27, metadata !6}
!49 = metadata !{metadata !"kernel_arg_type", metadata !"const ap_int_base<12, false> &"}
!50 = metadata !{null, metadata !38, metadata !39, metadata !40, metadata !41, metadata !45, metadata !6}
!51 = metadata !{null, metadata !20, metadata !15, metadata !47, metadata !22, metadata !36, metadata !6}
!52 = metadata !{null, metadata !20, metadata !15, metadata !21, metadata !22, metadata !53, metadata !6}
!53 = metadata !{metadata !"kernel_arg_name", metadata !"val"}
!54 = metadata !{null, metadata !20, metadata !15, metadata !55, metadata !22, metadata !36, metadata !6}
!55 = metadata !{metadata !"kernel_arg_type", metadata !"const ap_uint<12> &"}
!56 = metadata !{null, metadata !38, metadata !39, metadata !57, metadata !41, metadata !58, metadata !6}
!57 = metadata !{metadata !"kernel_arg_type", metadata !"int", metadata !"int"}
!58 = metadata !{metadata !"kernel_arg_name", metadata !"row", metadata !"col"}
!59 = metadata !{null, metadata !38, metadata !39, metadata !60, metadata !41, metadata !61, metadata !6}
!60 = metadata !{metadata !"kernel_arg_type", metadata !"float", metadata !"int"}
!61 = metadata !{metadata !"kernel_arg_name", metadata !"value", metadata !"col"}
!62 = metadata !{null, metadata !20, metadata !15, metadata !63, metadata !22, metadata !64, metadata !6}
!63 = metadata !{metadata !"kernel_arg_type", metadata !"double"}
!64 = metadata !{metadata !"kernel_arg_name", metadata !"v"}
!65 = metadata !{null, metadata !20, metadata !15, metadata !63, metadata !22, metadata !66, metadata !6}
!66 = metadata !{metadata !"kernel_arg_name", metadata !"d"}
!67 = metadata !{null, metadata !38, metadata !39, metadata !68, metadata !41, metadata !45, metadata !6}
!68 = metadata !{metadata !"kernel_arg_type", metadata !"const ap_int_base<1, false> &", metadata !"const ap_int_base<54, true> &"}
!69 = metadata !{null, metadata !20, metadata !15, metadata !70, metadata !22, metadata !27, metadata !6}
!70 = metadata !{metadata !"kernel_arg_type", metadata !"const ap_int_base<54, true> &"}
!71 = metadata !{null, metadata !20, metadata !15, metadata !35, metadata !22, metadata !27, metadata !6}
!72 = metadata !{null, metadata !20, metadata !15, metadata !73, metadata !22, metadata !36, metadata !6}
!73 = metadata !{metadata !"kernel_arg_type", metadata !"const ap_int_base<55, true> &"}
!74 = metadata !{null, metadata !38, metadata !39, metadata !75, metadata !41, metadata !42, metadata !6}
!75 = metadata !{metadata !"kernel_arg_type", metadata !"const ap_int_base<11, false> &", metadata !"int"}
!76 = metadata !{null, metadata !38, metadata !39, metadata !77, metadata !41, metadata !45, metadata !6}
!77 = metadata !{metadata !"kernel_arg_type", metadata !"const ap_int_base<11, false> &", metadata !"const ap_int_base<32, true> &"}
!78 = metadata !{null, metadata !20, metadata !15, metadata !79, metadata !22, metadata !27, metadata !6}
!79 = metadata !{metadata !"kernel_arg_type", metadata !"const ap_int_base<11, false> &"}
!80 = metadata !{null, metadata !20, metadata !15, metadata !81, metadata !22, metadata !36, metadata !6}
!81 = metadata !{metadata !"kernel_arg_type", metadata !"const ap_int_base<33, true> &"}
!82 = metadata !{null, metadata !20, metadata !15, metadata !63, metadata !22, metadata !83, metadata !6}
!83 = metadata !{metadata !"kernel_arg_name", metadata !"pf"}
!84 = metadata !{null, metadata !14, metadata !15, metadata !85, metadata !17, metadata !86, metadata !6}
!85 = metadata !{metadata !"kernel_arg_type", metadata !"char*"}
!86 = metadata !{metadata !"kernel_arg_name", metadata !"str"}
!87 = metadata !{null, metadata !88, metadata !39, metadata !89, metadata !90, metadata !91, metadata !6}
!88 = metadata !{metadata !"kernel_arg_addr_space", i32 1, i32 0}
!89 = metadata !{metadata !"kernel_arg_type", metadata !"char*", metadata !"signed char"}
!90 = metadata !{metadata !"kernel_arg_type_qual", metadata !"const", metadata !""}
!91 = metadata !{metadata !"kernel_arg_name", metadata !"str", metadata !"radix"}
!92 = metadata !{metadata !93, [1 x i32]* @llvm_global_ctors_0}
!93 = metadata !{metadata !94}
!94 = metadata !{i32 0, i32 31, metadata !95}
!95 = metadata !{metadata !96}
!96 = metadata !{metadata !"llvm.global_ctors.0", metadata !97, metadata !"", i32 0, i32 31}
!97 = metadata !{metadata !98}
!98 = metadata !{i32 0, i32 0, i32 1}
!99 = metadata !{metadata !100}
!100 = metadata !{i32 0, i32 31, metadata !101}
!101 = metadata !{metadata !102}
!102 = metadata !{metadata !"row", metadata !103, metadata !"int", i32 0, i32 31}
!103 = metadata !{metadata !104}
!104 = metadata !{i32 0, i32 9999, i32 1}
!105 = metadata !{metadata !106}
!106 = metadata !{i32 0, i32 31, metadata !107}
!107 = metadata !{metadata !108}
!108 = metadata !{metadata !"col", metadata !103, metadata !"int", i32 0, i32 31}
!109 = metadata !{metadata !110}
!110 = metadata !{i32 0, i32 31, metadata !111}
!111 = metadata !{metadata !112}
!112 = metadata !{metadata !"val", metadata !103, metadata !"float", i32 0, i32 31}
!113 = metadata !{metadata !114}
!114 = metadata !{i32 0, i32 31, metadata !115}
!115 = metadata !{metadata !116}
!116 = metadata !{metadata !"vector", metadata !117, metadata !"float", i32 0, i32 31}
!117 = metadata !{metadata !118}
!118 = metadata !{i32 0, i32 99, i32 1}
!119 = metadata !{metadata !120}
!120 = metadata !{i32 0, i32 31, metadata !121}
!121 = metadata !{metadata !122}
!122 = metadata !{metadata !"output", metadata !117, metadata !"float", i32 0, i32 31}
!123 = metadata !{metadata !124}
!124 = metadata !{i32 0, i32 31, metadata !125}
!125 = metadata !{metadata !126}
!126 = metadata !{metadata !"nnz", metadata !127, metadata !"int", i32 0, i32 31}
!127 = metadata !{metadata !128}
!128 = metadata !{i32 0, i32 0, i32 0}
!129 = metadata !{i32 786689, metadata !130, metadata !"nnz", metadata !131, i32 100663316, metadata !135, i32 0, i32 0} ; [ DW_TAG_arg_variable ]
!130 = metadata !{i32 786478, i32 0, metadata !131, metadata !"COO_SpMV", metadata !"COO_SpMV", metadata !"_Z8COO_SpMVPiS_PfPKfS0_i", metadata !131, i32 20, metadata !132, i1 false, i1 true, i32 0, i32 0, null, i32 256, i1 false, null, null, null, metadata !140, i32 20} ; [ DW_TAG_subprogram ]
!131 = metadata !{i32 786473, metadata !"COO_SpMV.cpp", metadata !"/home/sec322/ece5775/ece5775_project/project", null} ; [ DW_TAG_file_type ]
!132 = metadata !{i32 786453, i32 0, metadata !"", i32 0, i32 0, i64 0, i64 0, i64 0, i32 0, null, metadata !133, i32 0, i32 0} ; [ DW_TAG_subroutine_type ]
!133 = metadata !{null, metadata !134, metadata !134, metadata !136, metadata !138, metadata !136, metadata !135}
!134 = metadata !{i32 786447, null, metadata !"", null, i32 0, i64 64, i64 64, i64 0, i32 0, metadata !135} ; [ DW_TAG_pointer_type ]
!135 = metadata !{i32 786468, null, metadata !"int", null, i32 0, i64 32, i64 32, i64 0, i32 0, i32 5} ; [ DW_TAG_base_type ]
!136 = metadata !{i32 786447, null, metadata !"", null, i32 0, i64 64, i64 64, i64 0, i32 0, metadata !137} ; [ DW_TAG_pointer_type ]
!137 = metadata !{i32 786468, null, metadata !"float", null, i32 0, i64 32, i64 32, i64 0, i32 0, i32 4} ; [ DW_TAG_base_type ]
!138 = metadata !{i32 786447, null, metadata !"", null, i32 0, i64 64, i64 64, i64 0, i32 0, metadata !139} ; [ DW_TAG_pointer_type ]
!139 = metadata !{i32 786470, null, metadata !"", null, i32 0, i64 0, i64 0, i64 0, i32 0, metadata !137} ; [ DW_TAG_const_type ]
!140 = metadata !{metadata !141}
!141 = metadata !{i32 786468}                     ; [ DW_TAG_base_type ]
!142 = metadata !{i32 20, i32 133, metadata !130, null}
!143 = metadata !{i32 786689, metadata !130, metadata !"row", null, i32 20, metadata !144, i32 0, i32 0} ; [ DW_TAG_arg_variable ]
!144 = metadata !{i32 786433, null, metadata !"", null, i32 0, i64 320000, i64 32, i32 0, i32 0, metadata !135, metadata !145, i32 0, i32 0} ; [ DW_TAG_array_type ]
!145 = metadata !{metadata !146}
!146 = metadata !{i32 786465, i64 0, i64 9999}    ; [ DW_TAG_subrange_type ]
!147 = metadata !{i32 20, i32 19, metadata !130, null}
!148 = metadata !{i32 786689, metadata !130, metadata !"col", null, i32 20, metadata !144, i32 0, i32 0} ; [ DW_TAG_arg_variable ]
!149 = metadata !{i32 20, i32 41, metadata !130, null}
!150 = metadata !{i32 786689, metadata !130, metadata !"val", null, i32 20, metadata !151, i32 0, i32 0} ; [ DW_TAG_arg_variable ]
!151 = metadata !{i32 786433, null, metadata !"", null, i32 0, i64 320000, i64 32, i32 0, i32 0, metadata !137, metadata !145, i32 0, i32 0} ; [ DW_TAG_array_type ]
!152 = metadata !{i32 20, i32 65, metadata !130, null}
!153 = metadata !{i32 786689, metadata !130, metadata !"vector", null, i32 20, metadata !154, i32 0, i32 0} ; [ DW_TAG_arg_variable ]
!154 = metadata !{i32 786433, null, metadata !"", null, i32 0, i64 0, i64 0, i32 0, i32 0, metadata !139, metadata !155, i32 0, i32 0} ; [ DW_TAG_array_type ]
!155 = metadata !{metadata !156}
!156 = metadata !{i32 786465, i64 0, i64 99}      ; [ DW_TAG_subrange_type ]
!157 = metadata !{i32 20, i32 95, metadata !130, null}
!158 = metadata !{i32 786689, metadata !130, metadata !"output", null, i32 20, metadata !159, i32 0, i32 0} ; [ DW_TAG_arg_variable ]
!159 = metadata !{i32 786433, null, metadata !"", null, i32 0, i64 3200, i64 32, i32 0, i32 0, metadata !137, metadata !155, i32 0, i32 0} ; [ DW_TAG_array_type ]
!160 = metadata !{i32 20, i32 115, metadata !130, null}
!161 = metadata !{i32 790529, metadata !162, metadata !"temp1.val[0]", null, i32 22, metadata !201, i32 0, i32 0} ; [ DW_TAG_auto_variable_field ]
!162 = metadata !{i32 786688, metadata !163, metadata !"temp1", metadata !131, i32 22, metadata !164, i32 0, i32 0} ; [ DW_TAG_auto_variable ]
!163 = metadata !{i32 786443, metadata !130, i32 20, i32 138, metadata !131, i32 0} ; [ DW_TAG_lexical_block ]
!164 = metadata !{i32 786434, metadata !165, metadata !"LineBuffer<20, 100, float, 0>", metadata !166, i32 621, i64 64000, i64 32, i32 0, i32 0, null, metadata !167, i32 0, null, metadata !196} ; [ DW_TAG_class_type ]
!165 = metadata !{i32 786489, null, metadata !"hls", metadata !166, i32 45} ; [ DW_TAG_namespace ]
!166 = metadata !{i32 786473, metadata !"/opt/xilinx/xilinx_2016.2/Vivado_HLS/2016.2/common/technology/autopilot/hls/hls_video_mem.h", metadata !"/home/sec322/ece5775/ece5775_project/project", null} ; [ DW_TAG_file_type ]
!167 = metadata !{metadata !168, metadata !172, metadata !176, metadata !179, metadata !180, metadata !183, metadata !184, metadata !187, metadata !191, metadata !192, metadata !193, metadata !194, metadata !195}
!168 = metadata !{i32 786445, metadata !164, metadata !"val", metadata !166, i32 645, i64 64000, i64 32, i64 0, i32 0, metadata !169} ; [ DW_TAG_member ]
!169 = metadata !{i32 786433, null, metadata !"", null, i32 0, i64 64000, i64 32, i32 0, i32 0, metadata !137, metadata !170, i32 0, i32 0} ; [ DW_TAG_array_type ]
!170 = metadata !{metadata !171, metadata !156}
!171 = metadata !{i32 786465, i64 0, i64 19}      ; [ DW_TAG_subrange_type ]
!172 = metadata !{i32 786478, i32 0, metadata !164, metadata !"LineBuffer", metadata !"LineBuffer", metadata !"", metadata !166, i32 623, metadata !173, i1 false, i1 false, i32 0, i32 0, null, i32 256, i1 false, null, null, i32 0, metadata !140, i32 623} ; [ DW_TAG_subprogram ]
!173 = metadata !{i32 786453, i32 0, metadata !"", i32 0, i32 0, i64 0, i64 0, i64 0, i32 0, null, metadata !174, i32 0, i32 0} ; [ DW_TAG_subroutine_type ]
!174 = metadata !{null, metadata !175}
!175 = metadata !{i32 786447, i32 0, metadata !"", i32 0, i32 0, i64 64, i64 64, i64 0, i32 64, metadata !164} ; [ DW_TAG_pointer_type ]
!176 = metadata !{i32 786478, i32 0, metadata !164, metadata !"shift_pixels_up", metadata !"shift_pixels_up", metadata !"_ZN3hls10LineBufferILi20ELi100EfLi0EE15shift_pixels_upEi", metadata !166, i32 629, metadata !177, i1 false, i1 false, i32 0, i32 0, null, i32 256, i1 false, null, null, i32 0, metadata !140, i32 629} ; [ DW_TAG_subprogram ]
!177 = metadata !{i32 786453, i32 0, metadata !"", i32 0, i32 0, i64 0, i64 0, i64 0, i32 0, null, metadata !178, i32 0, i32 0} ; [ DW_TAG_subroutine_type ]
!178 = metadata !{null, metadata !175, metadata !135}
!179 = metadata !{i32 786478, i32 0, metadata !164, metadata !"shift_pixels_down", metadata !"shift_pixels_down", metadata !"_ZN3hls10LineBufferILi20ELi100EfLi0EE17shift_pixels_downEi", metadata !166, i32 630, metadata !177, i1 false, i1 false, i32 0, i32 0, null, i32 256, i1 false, null, null, i32 0, metadata !140, i32 630} ; [ DW_TAG_subprogram ]
!180 = metadata !{i32 786478, i32 0, metadata !164, metadata !"insert_bottom_row", metadata !"insert_bottom_row", metadata !"_ZN3hls10LineBufferILi20ELi100EfLi0EE17insert_bottom_rowEfi", metadata !166, i32 631, metadata !181, i1 false, i1 false, i32 0, i32 0, null, i32 256, i1 false, null, null, i32 0, metadata !140, i32 631} ; [ DW_TAG_subprogram ]
!181 = metadata !{i32 786453, i32 0, metadata !"", i32 0, i32 0, i64 0, i64 0, i64 0, i32 0, null, metadata !182, i32 0, i32 0} ; [ DW_TAG_subroutine_type ]
!182 = metadata !{null, metadata !175, metadata !137, metadata !135}
!183 = metadata !{i32 786478, i32 0, metadata !164, metadata !"insert_top_row", metadata !"insert_top_row", metadata !"_ZN3hls10LineBufferILi20ELi100EfLi0EE14insert_top_rowEfi", metadata !166, i32 632, metadata !181, i1 false, i1 false, i32 0, i32 0, null, i32 256, i1 false, null, null, i32 0, metadata !140, i32 632} ; [ DW_TAG_subprogram ]
!184 = metadata !{i32 786478, i32 0, metadata !164, metadata !"get_col", metadata !"get_col", metadata !"_ZN3hls10LineBufferILi20ELi100EfLi0EE7get_colEPfi", metadata !166, i32 633, metadata !185, i1 false, i1 false, i32 0, i32 0, null, i32 256, i1 false, null, null, i32 0, metadata !140, i32 633} ; [ DW_TAG_subprogram ]
!185 = metadata !{i32 786453, i32 0, metadata !"", i32 0, i32 0, i64 0, i64 0, i64 0, i32 0, null, metadata !186, i32 0, i32 0} ; [ DW_TAG_subroutine_type ]
!186 = metadata !{null, metadata !175, metadata !136, metadata !135}
!187 = metadata !{i32 786478, i32 0, metadata !164, metadata !"getval", metadata !"getval", metadata !"_ZN3hls10LineBufferILi20ELi100EfLi0EE6getvalEii", metadata !166, i32 634, metadata !188, i1 false, i1 false, i32 0, i32 0, null, i32 256, i1 false, null, null, i32 0, metadata !140, i32 634} ; [ DW_TAG_subprogram ]
!188 = metadata !{i32 786453, i32 0, metadata !"", i32 0, i32 0, i64 0, i64 0, i64 0, i32 0, null, metadata !189, i32 0, i32 0} ; [ DW_TAG_subroutine_type ]
!189 = metadata !{metadata !190, metadata !175, metadata !135, metadata !135}
!190 = metadata !{i32 786448, null, null, null, i32 0, i64 0, i64 0, i64 0, i32 0, metadata !137} ; [ DW_TAG_reference_type ]
!191 = metadata !{i32 786478, i32 0, metadata !164, metadata !"operator()", metadata !"operator()", metadata !"_ZN3hls10LineBufferILi20ELi100EfLi0EEclEii", metadata !166, i32 635, metadata !188, i1 false, i1 false, i32 0, i32 0, null, i32 256, i1 false, null, null, i32 0, metadata !140, i32 635} ; [ DW_TAG_subprogram ]
!192 = metadata !{i32 786478, i32 0, metadata !164, metadata !"shift_up", metadata !"shift_up", metadata !"_ZN3hls10LineBufferILi20ELi100EfLi0EE8shift_upEi", metadata !166, i32 638, metadata !177, i1 false, i1 false, i32 0, i32 0, null, i32 256, i1 false, null, null, i32 0, metadata !140, i32 638} ; [ DW_TAG_subprogram ]
!193 = metadata !{i32 786478, i32 0, metadata !164, metadata !"shift_down", metadata !"shift_down", metadata !"_ZN3hls10LineBufferILi20ELi100EfLi0EE10shift_downEi", metadata !166, i32 639, metadata !177, i1 false, i1 false, i32 0, i32 0, null, i32 256, i1 false, null, null, i32 0, metadata !140, i32 639} ; [ DW_TAG_subprogram ]
!194 = metadata !{i32 786478, i32 0, metadata !164, metadata !"insert_bottom", metadata !"insert_bottom", metadata !"_ZN3hls10LineBufferILi20ELi100EfLi0EE13insert_bottomEfi", metadata !166, i32 640, metadata !181, i1 false, i1 false, i32 0, i32 0, null, i32 256, i1 false, null, null, i32 0, metadata !140, i32 640} ; [ DW_TAG_subprogram ]
!195 = metadata !{i32 786478, i32 0, metadata !164, metadata !"insert_top", metadata !"insert_top", metadata !"_ZN3hls10LineBufferILi20ELi100EfLi0EE10insert_topEfi", metadata !166, i32 641, metadata !181, i1 false, i1 false, i32 0, i32 0, null, i32 256, i1 false, null, null, i32 0, metadata !140, i32 641} ; [ DW_TAG_subprogram ]
!196 = metadata !{metadata !197, metadata !198, metadata !199, metadata !200}
!197 = metadata !{i32 786480, null, metadata !"ROWS", metadata !135, i64 20, null, i32 0, i32 0} ; [ DW_TAG_template_value_parameter ]
!198 = metadata !{i32 786480, null, metadata !"COLS", metadata !135, i64 100, null, i32 0, i32 0} ; [ DW_TAG_template_value_parameter ]
!199 = metadata !{i32 786479, null, metadata !"T", metadata !137, null, i32 0, i32 0} ; [ DW_TAG_template_type_parameter ]
!200 = metadata !{i32 786480, null, metadata !"RESHAPE", metadata !135, i64 0, null, i32 0, i32 0} ; [ DW_TAG_template_value_parameter ]
!201 = metadata !{i32 786433, null, metadata !"", null, i32 0, i64 3200, i64 32, i32 0, i32 0, null, metadata !202, i32 0, i32 0} ; [ DW_TAG_array_type ]
!202 = metadata !{metadata !203}
!203 = metadata !{i32 786433, null, metadata !"", null, i32 0, i64 3200, i64 32, i32 0, i32 0, metadata !137, metadata !170, i32 0, i32 0} ; [ DW_TAG_array_type ]
!204 = metadata !{i32 22, i32 38, metadata !163, null}
!205 = metadata !{i32 790529, metadata !162, metadata !"temp1.val[1]", null, i32 22, metadata !201, i32 0, i32 0} ; [ DW_TAG_auto_variable_field ]
!206 = metadata !{i32 790529, metadata !162, metadata !"temp1.val[2]", null, i32 22, metadata !201, i32 0, i32 0} ; [ DW_TAG_auto_variable_field ]
!207 = metadata !{i32 790529, metadata !162, metadata !"temp1.val[3]", null, i32 22, metadata !201, i32 0, i32 0} ; [ DW_TAG_auto_variable_field ]
!208 = metadata !{i32 790529, metadata !162, metadata !"temp1.val[4]", null, i32 22, metadata !201, i32 0, i32 0} ; [ DW_TAG_auto_variable_field ]
!209 = metadata !{i32 790529, metadata !162, metadata !"temp1.val[5]", null, i32 22, metadata !201, i32 0, i32 0} ; [ DW_TAG_auto_variable_field ]
!210 = metadata !{i32 790529, metadata !162, metadata !"temp1.val[6]", null, i32 22, metadata !201, i32 0, i32 0} ; [ DW_TAG_auto_variable_field ]
!211 = metadata !{i32 790529, metadata !162, metadata !"temp1.val[7]", null, i32 22, metadata !201, i32 0, i32 0} ; [ DW_TAG_auto_variable_field ]
!212 = metadata !{i32 790529, metadata !162, metadata !"temp1.val[8]", null, i32 22, metadata !201, i32 0, i32 0} ; [ DW_TAG_auto_variable_field ]
!213 = metadata !{i32 790529, metadata !162, metadata !"temp1.val[9]", null, i32 22, metadata !201, i32 0, i32 0} ; [ DW_TAG_auto_variable_field ]
!214 = metadata !{i32 790529, metadata !162, metadata !"temp1.val[10]", null, i32 22, metadata !201, i32 0, i32 0} ; [ DW_TAG_auto_variable_field ]
!215 = metadata !{i32 790529, metadata !162, metadata !"temp1.val[11]", null, i32 22, metadata !201, i32 0, i32 0} ; [ DW_TAG_auto_variable_field ]
!216 = metadata !{i32 790529, metadata !162, metadata !"temp1.val[12]", null, i32 22, metadata !201, i32 0, i32 0} ; [ DW_TAG_auto_variable_field ]
!217 = metadata !{i32 790529, metadata !162, metadata !"temp1.val[13]", null, i32 22, metadata !201, i32 0, i32 0} ; [ DW_TAG_auto_variable_field ]
!218 = metadata !{i32 790529, metadata !162, metadata !"temp1.val[14]", null, i32 22, metadata !201, i32 0, i32 0} ; [ DW_TAG_auto_variable_field ]
!219 = metadata !{i32 790529, metadata !162, metadata !"temp1.val[15]", null, i32 22, metadata !201, i32 0, i32 0} ; [ DW_TAG_auto_variable_field ]
!220 = metadata !{i32 790529, metadata !162, metadata !"temp1.val[16]", null, i32 22, metadata !201, i32 0, i32 0} ; [ DW_TAG_auto_variable_field ]
!221 = metadata !{i32 790529, metadata !162, metadata !"temp1.val[17]", null, i32 22, metadata !201, i32 0, i32 0} ; [ DW_TAG_auto_variable_field ]
!222 = metadata !{i32 790529, metadata !162, metadata !"temp1.val[18]", null, i32 22, metadata !201, i32 0, i32 0} ; [ DW_TAG_auto_variable_field ]
!223 = metadata !{i32 790529, metadata !162, metadata !"temp1.val[19]", null, i32 22, metadata !201, i32 0, i32 0} ; [ DW_TAG_auto_variable_field ]
!224 = metadata !{i32 790529, metadata !225, metadata !"temp2.val[0]", null, i32 23, metadata !201, i32 0, i32 0} ; [ DW_TAG_auto_variable_field ]
!225 = metadata !{i32 786688, metadata !163, metadata !"temp2", metadata !131, i32 23, metadata !164, i32 0, i32 0} ; [ DW_TAG_auto_variable ]
!226 = metadata !{i32 23, i32 38, metadata !163, null}
!227 = metadata !{i32 790529, metadata !225, metadata !"temp2.val[1]", null, i32 23, metadata !201, i32 0, i32 0} ; [ DW_TAG_auto_variable_field ]
!228 = metadata !{i32 790529, metadata !225, metadata !"temp2.val[2]", null, i32 23, metadata !201, i32 0, i32 0} ; [ DW_TAG_auto_variable_field ]
!229 = metadata !{i32 790529, metadata !225, metadata !"temp2.val[3]", null, i32 23, metadata !201, i32 0, i32 0} ; [ DW_TAG_auto_variable_field ]
!230 = metadata !{i32 790529, metadata !225, metadata !"temp2.val[4]", null, i32 23, metadata !201, i32 0, i32 0} ; [ DW_TAG_auto_variable_field ]
!231 = metadata !{i32 790529, metadata !225, metadata !"temp2.val[5]", null, i32 23, metadata !201, i32 0, i32 0} ; [ DW_TAG_auto_variable_field ]
!232 = metadata !{i32 790529, metadata !225, metadata !"temp2.val[6]", null, i32 23, metadata !201, i32 0, i32 0} ; [ DW_TAG_auto_variable_field ]
!233 = metadata !{i32 790529, metadata !225, metadata !"temp2.val[7]", null, i32 23, metadata !201, i32 0, i32 0} ; [ DW_TAG_auto_variable_field ]
!234 = metadata !{i32 790529, metadata !225, metadata !"temp2.val[8]", null, i32 23, metadata !201, i32 0, i32 0} ; [ DW_TAG_auto_variable_field ]
!235 = metadata !{i32 790529, metadata !225, metadata !"temp2.val[9]", null, i32 23, metadata !201, i32 0, i32 0} ; [ DW_TAG_auto_variable_field ]
!236 = metadata !{i32 790529, metadata !225, metadata !"temp2.val[10]", null, i32 23, metadata !201, i32 0, i32 0} ; [ DW_TAG_auto_variable_field ]
!237 = metadata !{i32 790529, metadata !225, metadata !"temp2.val[11]", null, i32 23, metadata !201, i32 0, i32 0} ; [ DW_TAG_auto_variable_field ]
!238 = metadata !{i32 790529, metadata !225, metadata !"temp2.val[12]", null, i32 23, metadata !201, i32 0, i32 0} ; [ DW_TAG_auto_variable_field ]
!239 = metadata !{i32 790529, metadata !225, metadata !"temp2.val[13]", null, i32 23, metadata !201, i32 0, i32 0} ; [ DW_TAG_auto_variable_field ]
!240 = metadata !{i32 790529, metadata !225, metadata !"temp2.val[14]", null, i32 23, metadata !201, i32 0, i32 0} ; [ DW_TAG_auto_variable_field ]
!241 = metadata !{i32 790529, metadata !225, metadata !"temp2.val[15]", null, i32 23, metadata !201, i32 0, i32 0} ; [ DW_TAG_auto_variable_field ]
!242 = metadata !{i32 790529, metadata !225, metadata !"temp2.val[16]", null, i32 23, metadata !201, i32 0, i32 0} ; [ DW_TAG_auto_variable_field ]
!243 = metadata !{i32 790529, metadata !225, metadata !"temp2.val[17]", null, i32 23, metadata !201, i32 0, i32 0} ; [ DW_TAG_auto_variable_field ]
!244 = metadata !{i32 790529, metadata !225, metadata !"temp2.val[18]", null, i32 23, metadata !201, i32 0, i32 0} ; [ DW_TAG_auto_variable_field ]
!245 = metadata !{i32 790529, metadata !225, metadata !"temp2.val[19]", null, i32 23, metadata !201, i32 0, i32 0} ; [ DW_TAG_auto_variable_field ]
!246 = metadata !{i32 25, i32 18, metadata !247, null}
!247 = metadata !{i32 786443, metadata !163, i32 25, i32 5, metadata !131, i32 1} ; [ DW_TAG_lexical_block ]
!248 = metadata !{i32 25, i32 30, metadata !247, null}
!249 = metadata !{i32 786688, metadata !247, metadata !"i", metadata !131, i32 25, metadata !135, i32 0, i32 0} ; [ DW_TAG_auto_variable ]
!250 = metadata !{i32 26, i32 9, metadata !251, null}
!251 = metadata !{i32 786443, metadata !247, i32 25, i32 35, metadata !131, i32 2} ; [ DW_TAG_lexical_block ]
!252 = metadata !{i32 27, i32 23, metadata !253, null}
!253 = metadata !{i32 786443, metadata !251, i32 27, i32 9, metadata !131, i32 3} ; [ DW_TAG_lexical_block ]
!254 = metadata !{i32 27, i32 33, metadata !253, null}
!255 = metadata !{i32 786689, metadata !256, metadata !"col", metadata !166, i32 33555062, metadata !135, i32 0, metadata !257} ; [ DW_TAG_arg_variable ]
!256 = metadata !{i32 786478, i32 0, metadata !165, metadata !"shift_pixels_down", metadata !"shift_pixels_down", metadata !"_ZN3hls10LineBufferILi20ELi100EfLi0EE17shift_pixels_downEi", metadata !166, i32 630, metadata !177, i1 false, i1 true, i32 0, i32 0, null, i32 256, i1 false, null, null, metadata !179, metadata !140, i32 676} ; [ DW_TAG_subprogram ]
!257 = metadata !{i32 28, i32 13, metadata !258, null}
!258 = metadata !{i32 786443, metadata !253, i32 27, i32 38, metadata !131, i32 4} ; [ DW_TAG_lexical_block ]
!259 = metadata !{i32 630, i32 32, metadata !256, metadata !257}
!260 = metadata !{i32 689, i32 27, metadata !261, metadata !257}
!261 = metadata !{i32 786443, metadata !262, i32 687, i32 33, metadata !166, i32 62} ; [ DW_TAG_lexical_block ]
!262 = metadata !{i32 786443, metadata !263, i32 687, i32 5, metadata !166, i32 61} ; [ DW_TAG_lexical_block ]
!263 = metadata !{i32 786443, metadata !256, i32 676, i32 101, metadata !166, i32 60} ; [ DW_TAG_lexical_block ]
!264 = metadata !{i32 689, i32 13, metadata !261, metadata !257}
!265 = metadata !{i32 786689, metadata !266, metadata !"col", metadata !166, i32 50332280, metadata !135, i32 0, metadata !267} ; [ DW_TAG_arg_variable ]
!266 = metadata !{i32 786478, i32 0, metadata !165, metadata !"insert_top_row", metadata !"insert_top_row", metadata !"_ZN3hls10LineBufferILi20ELi100EfLi0EE14insert_top_rowEfi", metadata !166, i32 632, metadata !181, i1 false, i1 true, i32 0, i32 0, null, i32 256, i1 false, null, null, metadata !183, metadata !140, i32 787} ; [ DW_TAG_subprogram ]
!267 = metadata !{i32 29, i32 13, metadata !258, null}
!268 = metadata !{i32 632, i32 38, metadata !266, metadata !267}
!269 = metadata !{i32 797, i32 5, metadata !270, metadata !267}
!270 = metadata !{i32 786443, metadata !266, i32 787, i32 108, metadata !166, i32 59} ; [ DW_TAG_lexical_block ]
!271 = metadata !{i32 786689, metadata !256, metadata !"col", metadata !166, i32 33555062, metadata !135, i32 0, metadata !272} ; [ DW_TAG_arg_variable ]
!272 = metadata !{i32 30, i32 13, metadata !258, null}
!273 = metadata !{i32 630, i32 32, metadata !256, metadata !272}
!274 = metadata !{i32 689, i32 27, metadata !261, metadata !272}
!275 = metadata !{i32 689, i32 13, metadata !261, metadata !272}
!276 = metadata !{i32 786689, metadata !266, metadata !"col", metadata !166, i32 50332280, metadata !135, i32 0, metadata !277} ; [ DW_TAG_arg_variable ]
!277 = metadata !{i32 31, i32 13, metadata !258, null}
!278 = metadata !{i32 632, i32 38, metadata !266, metadata !277}
!279 = metadata !{i32 797, i32 5, metadata !270, metadata !277}
!280 = metadata !{i32 786688, metadata !253, metadata !"j", metadata !131, i32 27, metadata !135, i32 0, i32 0} ; [ DW_TAG_auto_variable ]
!281 = metadata !{i32 36, i32 19, metadata !282, null}
!282 = metadata !{i32 786443, metadata !163, i32 36, i32 5, metadata !131, i32 5} ; [ DW_TAG_lexical_block ]
!283 = metadata !{i32 36, i32 38, metadata !282, null}
!284 = metadata !{i32 37, i32 9, metadata !285, null}
!285 = metadata !{i32 786443, metadata !282, i32 36, i32 43, metadata !131, i32 6} ; [ DW_TAG_lexical_block ]
!286 = metadata !{i32 38, i32 13, metadata !287, null}
!287 = metadata !{i32 786443, metadata !285, i32 37, i32 22, metadata !131, i32 7} ; [ DW_TAG_lexical_block ]
!288 = metadata !{i32 786689, metadata !256, metadata !"col", metadata !166, i32 33555062, metadata !135, i32 0, metadata !286} ; [ DW_TAG_arg_variable ]
!289 = metadata !{i32 630, i32 32, metadata !256, metadata !286}
!290 = metadata !{i32 689, i32 9, metadata !261, metadata !286}
!291 = metadata !{i32 689, i32 27, metadata !261, metadata !286}
!292 = metadata !{i32 689, i32 13, metadata !261, metadata !286}
!293 = metadata !{i32 39, i32 13, metadata !287, null}
!294 = metadata !{i32 786689, metadata !266, metadata !"value", metadata !166, i32 33555064, metadata !137, i32 0, metadata !293} ; [ DW_TAG_arg_variable ]
!295 = metadata !{i32 632, i32 27, metadata !266, metadata !293}
!296 = metadata !{i32 786689, metadata !266, metadata !"col", metadata !166, i32 50332280, metadata !135, i32 0, metadata !293} ; [ DW_TAG_arg_variable ]
!297 = metadata !{i32 632, i32 38, metadata !266, metadata !293}
!298 = metadata !{i32 797, i32 5, metadata !270, metadata !293}
!299 = metadata !{i32 40, i32 9, metadata !287, null}
!300 = metadata !{i32 786688, metadata !282, metadata !"i", metadata !131, i32 36, metadata !135, i32 0, i32 0} ; [ DW_TAG_auto_variable ]
!301 = metadata !{i32 43, i32 19, metadata !302, null}
!302 = metadata !{i32 786443, metadata !163, i32 43, i32 5, metadata !131, i32 8} ; [ DW_TAG_lexical_block ]
!303 = metadata !{i32 43, i32 28, metadata !302, null}
!304 = metadata !{i32 786688, metadata !302, metadata !"k", metadata !131, i32 43, metadata !135, i32 0, i32 0} ; [ DW_TAG_auto_variable ]
!305 = metadata !{i32 786689, metadata !306, metadata !"col", metadata !166, i32 33555061, metadata !135, i32 0, metadata !307} ; [ DW_TAG_arg_variable ]
!306 = metadata !{i32 786478, i32 0, metadata !165, metadata !"shift_pixels_up", metadata !"shift_pixels_up", metadata !"_ZN3hls10LineBufferILi20ELi100EfLi0EE15shift_pixels_upEi", metadata !166, i32 629, metadata !177, i1 false, i1 true, i32 0, i32 0, null, i32 256, i1 false, null, null, metadata !176, metadata !140, i32 716} ; [ DW_TAG_subprogram ]
!307 = metadata !{i32 53, i32 17, metadata !308, null}
!308 = metadata !{i32 786443, metadata !309, i32 46, i32 42, metadata !131, i32 13} ; [ DW_TAG_lexical_block ]
!309 = metadata !{i32 786443, metadata !310, i32 46, i32 13, metadata !131, i32 12} ; [ DW_TAG_lexical_block ]
!310 = metadata !{i32 786443, metadata !311, i32 45, i32 40, metadata !131, i32 11} ; [ DW_TAG_lexical_block ]
!311 = metadata !{i32 786443, metadata !312, i32 45, i32 9, metadata !131, i32 10} ; [ DW_TAG_lexical_block ]
!312 = metadata !{i32 786443, metadata !302, i32 43, i32 33, metadata !131, i32 9} ; [ DW_TAG_lexical_block ]
!313 = metadata !{i32 629, i32 30, metadata !306, metadata !307}
!314 = metadata !{i32 786689, metadata !256, metadata !"col", metadata !166, i32 33555062, metadata !135, i32 0, metadata !315} ; [ DW_TAG_arg_variable ]
!315 = metadata !{i32 49, i32 21, metadata !316, null}
!316 = metadata !{i32 786443, metadata !308, i32 48, i32 31, metadata !131, i32 14} ; [ DW_TAG_lexical_block ]
!317 = metadata !{i32 630, i32 32, metadata !256, metadata !315}
!318 = metadata !{i32 45, i32 23, metadata !311, null}
!319 = metadata !{i32 45, i32 35, metadata !311, null}
!320 = metadata !{i32 786688, metadata !311, metadata !"i", metadata !131, i32 45, metadata !135, i32 0, i32 0} ; [ DW_TAG_auto_variable ]
!321 = metadata !{i32 835, i32 5, metadata !322, metadata !324}
!322 = metadata !{i32 786443, metadata !323, i32 832, i32 98, metadata !166, i32 58} ; [ DW_TAG_lexical_block ]
!323 = metadata !{i32 786478, i32 0, metadata !165, metadata !"getval", metadata !"getval", metadata !"_ZN3hls10LineBufferILi20ELi100EfLi0EE6getvalEii", metadata !166, i32 634, metadata !188, i1 false, i1 true, i32 0, i32 0, null, i32 256, i1 false, null, null, metadata !187, metadata !140, i32 832} ; [ DW_TAG_subprogram ]
!324 = metadata !{i32 47, i32 29, metadata !308, null}
!325 = metadata !{i32 729, i32 27, metadata !326, metadata !329}
!326 = metadata !{i32 786443, metadata !327, i32 727, i32 33, metadata !166, i32 36} ; [ DW_TAG_lexical_block ]
!327 = metadata !{i32 786443, metadata !328, i32 727, i32 5, metadata !166, i32 35} ; [ DW_TAG_lexical_block ]
!328 = metadata !{i32 786443, metadata !306, i32 716, i32 99, metadata !166, i32 34} ; [ DW_TAG_lexical_block ]
!329 = metadata !{i32 52, i32 17, metadata !308, null}
!330 = metadata !{i32 46, i32 27, metadata !309, null}
!331 = metadata !{i32 46, i32 37, metadata !309, null}
!332 = metadata !{i32 786689, metadata !323, metadata !"col", metadata !166, i32 50332282, metadata !135, i32 0, metadata !324} ; [ DW_TAG_arg_variable ]
!333 = metadata !{i32 634, i32 28, metadata !323, metadata !324}
!334 = metadata !{i32 786689, metadata !323, metadata !"col", metadata !166, i32 50332282, metadata !135, i32 0, metadata !335} ; [ DW_TAG_arg_variable ]
!335 = metadata !{i32 47, i32 50, metadata !308, null}
!336 = metadata !{i32 634, i32 28, metadata !323, metadata !335}
!337 = metadata !{i32 786688, metadata !308, metadata !"sum", metadata !131, i32 47, metadata !137, i32 0, i32 0} ; [ DW_TAG_auto_variable ]
!338 = metadata !{i32 48, i32 17, metadata !308, null}
!339 = metadata !{i32 689, i32 27, metadata !261, metadata !315}
!340 = metadata !{i32 689, i32 13, metadata !261, metadata !315}
!341 = metadata !{i32 786689, metadata !266, metadata !"value", metadata !166, i32 33555064, metadata !137, i32 0, metadata !342} ; [ DW_TAG_arg_variable ]
!342 = metadata !{i32 50, i32 21, metadata !316, null}
!343 = metadata !{i32 632, i32 27, metadata !266, metadata !342}
!344 = metadata !{i32 786689, metadata !266, metadata !"col", metadata !166, i32 50332280, metadata !135, i32 0, metadata !342} ; [ DW_TAG_arg_variable ]
!345 = metadata !{i32 632, i32 38, metadata !266, metadata !342}
!346 = metadata !{i32 797, i32 5, metadata !270, metadata !342}
!347 = metadata !{i32 51, i32 17, metadata !316, null}
!348 = metadata !{i32 786689, metadata !306, metadata !"col", metadata !166, i32 33555061, metadata !135, i32 0, metadata !329} ; [ DW_TAG_arg_variable ]
!349 = metadata !{i32 629, i32 30, metadata !306, metadata !329}
!350 = metadata !{i32 729, i32 13, metadata !326, metadata !307}
!351 = metadata !{i32 786688, metadata !309, metadata !"j", metadata !131, i32 46, metadata !135, i32 0, i32 0} ; [ DW_TAG_auto_variable ]
!352 = metadata !{i32 786689, metadata !306, metadata !"col", metadata !166, i32 33555061, metadata !135, i32 0, metadata !353} ; [ DW_TAG_arg_variable ]
!353 = metadata !{i32 65, i32 17, metadata !354, null}
!354 = metadata !{i32 786443, metadata !355, i32 58, i32 42, metadata !131, i32 18} ; [ DW_TAG_lexical_block ]
!355 = metadata !{i32 786443, metadata !356, i32 58, i32 13, metadata !131, i32 17} ; [ DW_TAG_lexical_block ]
!356 = metadata !{i32 786443, metadata !357, i32 57, i32 40, metadata !131, i32 16} ; [ DW_TAG_lexical_block ]
!357 = metadata !{i32 786443, metadata !312, i32 57, i32 9, metadata !131, i32 15} ; [ DW_TAG_lexical_block ]
!358 = metadata !{i32 629, i32 30, metadata !306, metadata !353}
!359 = metadata !{i32 786689, metadata !256, metadata !"col", metadata !166, i32 33555062, metadata !135, i32 0, metadata !360} ; [ DW_TAG_arg_variable ]
!360 = metadata !{i32 61, i32 21, metadata !361, null}
!361 = metadata !{i32 786443, metadata !354, i32 60, i32 31, metadata !131, i32 19} ; [ DW_TAG_lexical_block ]
!362 = metadata !{i32 630, i32 32, metadata !256, metadata !360}
!363 = metadata !{i32 57, i32 23, metadata !357, null}
!364 = metadata !{i32 57, i32 35, metadata !357, null}
!365 = metadata !{i32 786688, metadata !357, metadata !"i", metadata !131, i32 57, metadata !135, i32 0, i32 0} ; [ DW_TAG_auto_variable ]
!366 = metadata !{i32 835, i32 5, metadata !322, metadata !367}
!367 = metadata !{i32 59, i32 29, metadata !354, null}
!368 = metadata !{i32 729, i32 27, metadata !326, metadata !369}
!369 = metadata !{i32 64, i32 17, metadata !354, null}
!370 = metadata !{i32 58, i32 27, metadata !355, null}
!371 = metadata !{i32 58, i32 37, metadata !355, null}
!372 = metadata !{i32 786689, metadata !323, metadata !"col", metadata !166, i32 50332282, metadata !135, i32 0, metadata !367} ; [ DW_TAG_arg_variable ]
!373 = metadata !{i32 634, i32 28, metadata !323, metadata !367}
!374 = metadata !{i32 786689, metadata !323, metadata !"col", metadata !166, i32 50332282, metadata !135, i32 0, metadata !375} ; [ DW_TAG_arg_variable ]
!375 = metadata !{i32 59, i32 50, metadata !354, null}
!376 = metadata !{i32 634, i32 28, metadata !323, metadata !375}
!377 = metadata !{i32 786688, metadata !354, metadata !"sum", metadata !131, i32 59, metadata !137, i32 0, i32 0} ; [ DW_TAG_auto_variable ]
!378 = metadata !{i32 60, i32 17, metadata !354, null}
!379 = metadata !{i32 689, i32 27, metadata !261, metadata !360}
!380 = metadata !{i32 689, i32 13, metadata !261, metadata !360}
!381 = metadata !{i32 786689, metadata !266, metadata !"value", metadata !166, i32 33555064, metadata !137, i32 0, metadata !382} ; [ DW_TAG_arg_variable ]
!382 = metadata !{i32 62, i32 21, metadata !361, null}
!383 = metadata !{i32 632, i32 27, metadata !266, metadata !382}
!384 = metadata !{i32 786689, metadata !266, metadata !"col", metadata !166, i32 50332280, metadata !135, i32 0, metadata !382} ; [ DW_TAG_arg_variable ]
!385 = metadata !{i32 632, i32 38, metadata !266, metadata !382}
!386 = metadata !{i32 797, i32 5, metadata !270, metadata !382}
!387 = metadata !{i32 63, i32 17, metadata !361, null}
!388 = metadata !{i32 786689, metadata !306, metadata !"col", metadata !166, i32 33555061, metadata !135, i32 0, metadata !369} ; [ DW_TAG_arg_variable ]
!389 = metadata !{i32 629, i32 30, metadata !306, metadata !369}
!390 = metadata !{i32 729, i32 13, metadata !326, metadata !353}
!391 = metadata !{i32 786688, metadata !355, metadata !"j", metadata !131, i32 58, metadata !135, i32 0, i32 0} ; [ DW_TAG_auto_variable ]
!392 = metadata !{i32 70, i32 19, metadata !393, null}
!393 = metadata !{i32 786443, metadata !163, i32 70, i32 5, metadata !131, i32 20} ; [ DW_TAG_lexical_block ]
!394 = metadata !{i32 70, i32 31, metadata !393, null}
!395 = metadata !{i32 786689, metadata !323, metadata !"col", metadata !166, i32 50332282, metadata !135, i32 0, metadata !396} ; [ DW_TAG_arg_variable ]
!396 = metadata !{i32 71, i32 21, metadata !397, null}
!397 = metadata !{i32 786443, metadata !393, i32 70, i32 36, metadata !131, i32 21} ; [ DW_TAG_lexical_block ]
!398 = metadata !{i32 634, i32 28, metadata !323, metadata !396}
!399 = metadata !{i32 835, i32 5, metadata !322, metadata !396}
!400 = metadata !{i32 786688, metadata !393, metadata !"i", metadata !131, i32 70, metadata !135, i32 0, i32 0} ; [ DW_TAG_auto_variable ]
!401 = metadata !{i32 109, i32 1, metadata !163, null}
